
AVR_DRIVERS.elf:     file format elf32-avr

Sections:
Idx Name          Size      VMA       LMA       File off  Algn
  0 .text         00003224  00000000  00000000  00000074  2**1
                  CONTENTS, ALLOC, LOAD, READONLY, CODE
  1 .data         00000020  00800060  00003224  00003298  2**0
                  CONTENTS, ALLOC, LOAD, DATA
  2 .stab         0000315c  00000000  00000000  000032b8  2**2
                  CONTENTS, READONLY, DEBUGGING
  3 .stabstr      00001758  00000000  00000000  00006414  2**0
                  CONTENTS, READONLY, DEBUGGING
  4 .debug_aranges 00000140  00000000  00000000  00007b6c  2**0
                  CONTENTS, READONLY, DEBUGGING
  5 .debug_pubnames 00000170  00000000  00000000  00007cac  2**0
                  CONTENTS, READONLY, DEBUGGING
  6 .debug_info   00001c49  00000000  00000000  00007e1c  2**0
                  CONTENTS, READONLY, DEBUGGING
  7 .debug_abbrev 00000eeb  00000000  00000000  00009a65  2**0
                  CONTENTS, READONLY, DEBUGGING
  8 .debug_line   00000dad  00000000  00000000  0000a950  2**0
                  CONTENTS, READONLY, DEBUGGING
  9 .debug_frame  00000160  00000000  00000000  0000b700  2**2
                  CONTENTS, READONLY, DEBUGGING
 10 .debug_str    0000028d  00000000  00000000  0000b860  2**0
                  CONTENTS, READONLY, DEBUGGING
 11 .debug_loc    000007ce  00000000  00000000  0000baed  2**0
                  CONTENTS, READONLY, DEBUGGING
 12 .debug_ranges 00000050  00000000  00000000  0000c2bb  2**0
                  CONTENTS, READONLY, DEBUGGING

Disassembly of section .text:

00000000 <__vectors>:
       0:	0c 94 2a 00 	jmp	0x54	; 0x54 <__ctors_end>
       4:	0c 94 3f 00 	jmp	0x7e	; 0x7e <__bad_interrupt>
       8:	0c 94 3f 00 	jmp	0x7e	; 0x7e <__bad_interrupt>
       c:	0c 94 3f 00 	jmp	0x7e	; 0x7e <__bad_interrupt>
      10:	0c 94 3f 00 	jmp	0x7e	; 0x7e <__bad_interrupt>
      14:	0c 94 3f 00 	jmp	0x7e	; 0x7e <__bad_interrupt>
      18:	0c 94 3f 00 	jmp	0x7e	; 0x7e <__bad_interrupt>
      1c:	0c 94 3f 00 	jmp	0x7e	; 0x7e <__bad_interrupt>
      20:	0c 94 3f 00 	jmp	0x7e	; 0x7e <__bad_interrupt>
      24:	0c 94 3f 00 	jmp	0x7e	; 0x7e <__bad_interrupt>
      28:	0c 94 3f 00 	jmp	0x7e	; 0x7e <__bad_interrupt>
      2c:	0c 94 3f 00 	jmp	0x7e	; 0x7e <__bad_interrupt>
      30:	0c 94 3f 00 	jmp	0x7e	; 0x7e <__bad_interrupt>
      34:	0c 94 3f 00 	jmp	0x7e	; 0x7e <__bad_interrupt>
      38:	0c 94 3f 00 	jmp	0x7e	; 0x7e <__bad_interrupt>
      3c:	0c 94 3f 00 	jmp	0x7e	; 0x7e <__bad_interrupt>
      40:	0c 94 3f 00 	jmp	0x7e	; 0x7e <__bad_interrupt>
      44:	0c 94 3f 00 	jmp	0x7e	; 0x7e <__bad_interrupt>
      48:	0c 94 3f 00 	jmp	0x7e	; 0x7e <__bad_interrupt>
      4c:	0c 94 3f 00 	jmp	0x7e	; 0x7e <__bad_interrupt>
      50:	0c 94 3f 00 	jmp	0x7e	; 0x7e <__bad_interrupt>

00000054 <__ctors_end>:
      54:	11 24       	eor	r1, r1
      56:	1f be       	out	0x3f, r1	; 63
      58:	cf e5       	ldi	r28, 0x5F	; 95
      5a:	d8 e0       	ldi	r29, 0x08	; 8
      5c:	de bf       	out	0x3e, r29	; 62
      5e:	cd bf       	out	0x3d, r28	; 61

00000060 <__do_copy_data>:
      60:	10 e0       	ldi	r17, 0x00	; 0
      62:	a0 e6       	ldi	r26, 0x60	; 96
      64:	b0 e0       	ldi	r27, 0x00	; 0
      66:	e4 e2       	ldi	r30, 0x24	; 36
      68:	f2 e3       	ldi	r31, 0x32	; 50
      6a:	02 c0       	rjmp	.+4      	; 0x70 <.do_copy_data_start>

0000006c <.do_copy_data_loop>:
      6c:	05 90       	lpm	r0, Z+
      6e:	0d 92       	st	X+, r0

00000070 <.do_copy_data_start>:
      70:	a0 38       	cpi	r26, 0x80	; 128
      72:	b1 07       	cpc	r27, r17
      74:	d9 f7       	brne	.-10     	; 0x6c <.do_copy_data_loop>
      76:	0e 94 a3 18 	call	0x3146	; 0x3146 <main>
      7a:	0c 94 10 19 	jmp	0x3220	; 0x3220 <_exit>

0000007e <__bad_interrupt>:
      7e:	0c 94 00 00 	jmp	0	; 0x0 <__vectors>

00000082 <__fixunssfsi>:
      82:	ef 92       	push	r14
      84:	ff 92       	push	r15
      86:	0f 93       	push	r16
      88:	1f 93       	push	r17
      8a:	7b 01       	movw	r14, r22
      8c:	8c 01       	movw	r16, r24
      8e:	20 e0       	ldi	r18, 0x00	; 0
      90:	30 e0       	ldi	r19, 0x00	; 0
      92:	40 e0       	ldi	r20, 0x00	; 0
      94:	5f e4       	ldi	r21, 0x4F	; 79
      96:	0e 94 41 03 	call	0x682	; 0x682 <__gesf2>
      9a:	88 23       	and	r24, r24
      9c:	8c f0       	brlt	.+34     	; 0xc0 <__fixunssfsi+0x3e>
      9e:	c8 01       	movw	r24, r16
      a0:	b7 01       	movw	r22, r14
      a2:	20 e0       	ldi	r18, 0x00	; 0
      a4:	30 e0       	ldi	r19, 0x00	; 0
      a6:	40 e0       	ldi	r20, 0x00	; 0
      a8:	5f e4       	ldi	r21, 0x4F	; 79
      aa:	0e 94 b9 01 	call	0x372	; 0x372 <__subsf3>
      ae:	0e 94 a1 03 	call	0x742	; 0x742 <__fixsfsi>
      b2:	9b 01       	movw	r18, r22
      b4:	ac 01       	movw	r20, r24
      b6:	20 50       	subi	r18, 0x00	; 0
      b8:	30 40       	sbci	r19, 0x00	; 0
      ba:	40 40       	sbci	r20, 0x00	; 0
      bc:	50 48       	sbci	r21, 0x80	; 128
      be:	06 c0       	rjmp	.+12     	; 0xcc <__fixunssfsi+0x4a>
      c0:	c8 01       	movw	r24, r16
      c2:	b7 01       	movw	r22, r14
      c4:	0e 94 a1 03 	call	0x742	; 0x742 <__fixsfsi>
      c8:	9b 01       	movw	r18, r22
      ca:	ac 01       	movw	r20, r24
      cc:	b9 01       	movw	r22, r18
      ce:	ca 01       	movw	r24, r20
      d0:	1f 91       	pop	r17
      d2:	0f 91       	pop	r16
      d4:	ff 90       	pop	r15
      d6:	ef 90       	pop	r14
      d8:	08 95       	ret

000000da <_fpadd_parts>:
      da:	a0 e0       	ldi	r26, 0x00	; 0
      dc:	b0 e0       	ldi	r27, 0x00	; 0
      de:	e3 e7       	ldi	r30, 0x73	; 115
      e0:	f0 e0       	ldi	r31, 0x00	; 0
      e2:	0c 94 d9 18 	jmp	0x31b2	; 0x31b2 <__prologue_saves__>
      e6:	dc 01       	movw	r26, r24
      e8:	2b 01       	movw	r4, r22
      ea:	fa 01       	movw	r30, r20
      ec:	9c 91       	ld	r25, X
      ee:	92 30       	cpi	r25, 0x02	; 2
      f0:	08 f4       	brcc	.+2      	; 0xf4 <_fpadd_parts+0x1a>
      f2:	39 c1       	rjmp	.+626    	; 0x366 <_fpadd_parts+0x28c>
      f4:	eb 01       	movw	r28, r22
      f6:	88 81       	ld	r24, Y
      f8:	82 30       	cpi	r24, 0x02	; 2
      fa:	08 f4       	brcc	.+2      	; 0xfe <_fpadd_parts+0x24>
      fc:	33 c1       	rjmp	.+614    	; 0x364 <_fpadd_parts+0x28a>
      fe:	94 30       	cpi	r25, 0x04	; 4
     100:	69 f4       	brne	.+26     	; 0x11c <_fpadd_parts+0x42>
     102:	84 30       	cpi	r24, 0x04	; 4
     104:	09 f0       	breq	.+2      	; 0x108 <_fpadd_parts+0x2e>
     106:	2f c1       	rjmp	.+606    	; 0x366 <_fpadd_parts+0x28c>
     108:	11 96       	adiw	r26, 0x01	; 1
     10a:	9c 91       	ld	r25, X
     10c:	11 97       	sbiw	r26, 0x01	; 1
     10e:	89 81       	ldd	r24, Y+1	; 0x01
     110:	98 17       	cp	r25, r24
     112:	09 f4       	brne	.+2      	; 0x116 <_fpadd_parts+0x3c>
     114:	28 c1       	rjmp	.+592    	; 0x366 <_fpadd_parts+0x28c>
     116:	a0 e6       	ldi	r26, 0x60	; 96
     118:	b0 e0       	ldi	r27, 0x00	; 0
     11a:	25 c1       	rjmp	.+586    	; 0x366 <_fpadd_parts+0x28c>
     11c:	84 30       	cpi	r24, 0x04	; 4
     11e:	09 f4       	brne	.+2      	; 0x122 <_fpadd_parts+0x48>
     120:	21 c1       	rjmp	.+578    	; 0x364 <_fpadd_parts+0x28a>
     122:	82 30       	cpi	r24, 0x02	; 2
     124:	a9 f4       	brne	.+42     	; 0x150 <_fpadd_parts+0x76>
     126:	92 30       	cpi	r25, 0x02	; 2
     128:	09 f0       	breq	.+2      	; 0x12c <_fpadd_parts+0x52>
     12a:	1d c1       	rjmp	.+570    	; 0x366 <_fpadd_parts+0x28c>
     12c:	9a 01       	movw	r18, r20
     12e:	ad 01       	movw	r20, r26
     130:	88 e0       	ldi	r24, 0x08	; 8
     132:	ea 01       	movw	r28, r20
     134:	09 90       	ld	r0, Y+
     136:	ae 01       	movw	r20, r28
     138:	e9 01       	movw	r28, r18
     13a:	09 92       	st	Y+, r0
     13c:	9e 01       	movw	r18, r28
     13e:	81 50       	subi	r24, 0x01	; 1
     140:	c1 f7       	brne	.-16     	; 0x132 <_fpadd_parts+0x58>
     142:	e2 01       	movw	r28, r4
     144:	89 81       	ldd	r24, Y+1	; 0x01
     146:	11 96       	adiw	r26, 0x01	; 1
     148:	9c 91       	ld	r25, X
     14a:	89 23       	and	r24, r25
     14c:	81 83       	std	Z+1, r24	; 0x01
     14e:	08 c1       	rjmp	.+528    	; 0x360 <_fpadd_parts+0x286>
     150:	92 30       	cpi	r25, 0x02	; 2
     152:	09 f4       	brne	.+2      	; 0x156 <_fpadd_parts+0x7c>
     154:	07 c1       	rjmp	.+526    	; 0x364 <_fpadd_parts+0x28a>
     156:	12 96       	adiw	r26, 0x02	; 2
     158:	2d 90       	ld	r2, X+
     15a:	3c 90       	ld	r3, X
     15c:	13 97       	sbiw	r26, 0x03	; 3
     15e:	eb 01       	movw	r28, r22
     160:	8a 81       	ldd	r24, Y+2	; 0x02
     162:	9b 81       	ldd	r25, Y+3	; 0x03
     164:	14 96       	adiw	r26, 0x04	; 4
     166:	ad 90       	ld	r10, X+
     168:	bd 90       	ld	r11, X+
     16a:	cd 90       	ld	r12, X+
     16c:	dc 90       	ld	r13, X
     16e:	17 97       	sbiw	r26, 0x07	; 7
     170:	ec 80       	ldd	r14, Y+4	; 0x04
     172:	fd 80       	ldd	r15, Y+5	; 0x05
     174:	0e 81       	ldd	r16, Y+6	; 0x06
     176:	1f 81       	ldd	r17, Y+7	; 0x07
     178:	91 01       	movw	r18, r2
     17a:	28 1b       	sub	r18, r24
     17c:	39 0b       	sbc	r19, r25
     17e:	b9 01       	movw	r22, r18
     180:	37 ff       	sbrs	r19, 7
     182:	04 c0       	rjmp	.+8      	; 0x18c <_fpadd_parts+0xb2>
     184:	66 27       	eor	r22, r22
     186:	77 27       	eor	r23, r23
     188:	62 1b       	sub	r22, r18
     18a:	73 0b       	sbc	r23, r19
     18c:	60 32       	cpi	r22, 0x20	; 32
     18e:	71 05       	cpc	r23, r1
     190:	0c f0       	brlt	.+2      	; 0x194 <_fpadd_parts+0xba>
     192:	61 c0       	rjmp	.+194    	; 0x256 <_fpadd_parts+0x17c>
     194:	12 16       	cp	r1, r18
     196:	13 06       	cpc	r1, r19
     198:	6c f5       	brge	.+90     	; 0x1f4 <_fpadd_parts+0x11a>
     19a:	37 01       	movw	r6, r14
     19c:	48 01       	movw	r8, r16
     19e:	06 2e       	mov	r0, r22
     1a0:	04 c0       	rjmp	.+8      	; 0x1aa <_fpadd_parts+0xd0>
     1a2:	96 94       	lsr	r9
     1a4:	87 94       	ror	r8
     1a6:	77 94       	ror	r7
     1a8:	67 94       	ror	r6
     1aa:	0a 94       	dec	r0
     1ac:	d2 f7       	brpl	.-12     	; 0x1a2 <_fpadd_parts+0xc8>
     1ae:	21 e0       	ldi	r18, 0x01	; 1
     1b0:	30 e0       	ldi	r19, 0x00	; 0
     1b2:	40 e0       	ldi	r20, 0x00	; 0
     1b4:	50 e0       	ldi	r21, 0x00	; 0
     1b6:	04 c0       	rjmp	.+8      	; 0x1c0 <_fpadd_parts+0xe6>
     1b8:	22 0f       	add	r18, r18
     1ba:	33 1f       	adc	r19, r19
     1bc:	44 1f       	adc	r20, r20
     1be:	55 1f       	adc	r21, r21
     1c0:	6a 95       	dec	r22
     1c2:	d2 f7       	brpl	.-12     	; 0x1b8 <_fpadd_parts+0xde>
     1c4:	21 50       	subi	r18, 0x01	; 1
     1c6:	30 40       	sbci	r19, 0x00	; 0
     1c8:	40 40       	sbci	r20, 0x00	; 0
     1ca:	50 40       	sbci	r21, 0x00	; 0
     1cc:	2e 21       	and	r18, r14
     1ce:	3f 21       	and	r19, r15
     1d0:	40 23       	and	r20, r16
     1d2:	51 23       	and	r21, r17
     1d4:	21 15       	cp	r18, r1
     1d6:	31 05       	cpc	r19, r1
     1d8:	41 05       	cpc	r20, r1
     1da:	51 05       	cpc	r21, r1
     1dc:	21 f0       	breq	.+8      	; 0x1e6 <_fpadd_parts+0x10c>
     1de:	21 e0       	ldi	r18, 0x01	; 1
     1e0:	30 e0       	ldi	r19, 0x00	; 0
     1e2:	40 e0       	ldi	r20, 0x00	; 0
     1e4:	50 e0       	ldi	r21, 0x00	; 0
     1e6:	79 01       	movw	r14, r18
     1e8:	8a 01       	movw	r16, r20
     1ea:	e6 28       	or	r14, r6
     1ec:	f7 28       	or	r15, r7
     1ee:	08 29       	or	r16, r8
     1f0:	19 29       	or	r17, r9
     1f2:	3c c0       	rjmp	.+120    	; 0x26c <_fpadd_parts+0x192>
     1f4:	23 2b       	or	r18, r19
     1f6:	d1 f1       	breq	.+116    	; 0x26c <_fpadd_parts+0x192>
     1f8:	26 0e       	add	r2, r22
     1fa:	37 1e       	adc	r3, r23
     1fc:	35 01       	movw	r6, r10
     1fe:	46 01       	movw	r8, r12
     200:	06 2e       	mov	r0, r22
     202:	04 c0       	rjmp	.+8      	; 0x20c <_fpadd_parts+0x132>
     204:	96 94       	lsr	r9
     206:	87 94       	ror	r8
     208:	77 94       	ror	r7
     20a:	67 94       	ror	r6
     20c:	0a 94       	dec	r0
     20e:	d2 f7       	brpl	.-12     	; 0x204 <_fpadd_parts+0x12a>
     210:	21 e0       	ldi	r18, 0x01	; 1
     212:	30 e0       	ldi	r19, 0x00	; 0
     214:	40 e0       	ldi	r20, 0x00	; 0
     216:	50 e0       	ldi	r21, 0x00	; 0
     218:	04 c0       	rjmp	.+8      	; 0x222 <_fpadd_parts+0x148>
     21a:	22 0f       	add	r18, r18
     21c:	33 1f       	adc	r19, r19
     21e:	44 1f       	adc	r20, r20
     220:	55 1f       	adc	r21, r21
     222:	6a 95       	dec	r22
     224:	d2 f7       	brpl	.-12     	; 0x21a <_fpadd_parts+0x140>
     226:	21 50       	subi	r18, 0x01	; 1
     228:	30 40       	sbci	r19, 0x00	; 0
     22a:	40 40       	sbci	r20, 0x00	; 0
     22c:	50 40       	sbci	r21, 0x00	; 0
     22e:	2a 21       	and	r18, r10
     230:	3b 21       	and	r19, r11
     232:	4c 21       	and	r20, r12
     234:	5d 21       	and	r21, r13
     236:	21 15       	cp	r18, r1
     238:	31 05       	cpc	r19, r1
     23a:	41 05       	cpc	r20, r1
     23c:	51 05       	cpc	r21, r1
     23e:	21 f0       	breq	.+8      	; 0x248 <_fpadd_parts+0x16e>
     240:	21 e0       	ldi	r18, 0x01	; 1
     242:	30 e0       	ldi	r19, 0x00	; 0
     244:	40 e0       	ldi	r20, 0x00	; 0
     246:	50 e0       	ldi	r21, 0x00	; 0
     248:	59 01       	movw	r10, r18
     24a:	6a 01       	movw	r12, r20
     24c:	a6 28       	or	r10, r6
     24e:	b7 28       	or	r11, r7
     250:	c8 28       	or	r12, r8
     252:	d9 28       	or	r13, r9
     254:	0b c0       	rjmp	.+22     	; 0x26c <_fpadd_parts+0x192>
     256:	82 15       	cp	r24, r2
     258:	93 05       	cpc	r25, r3
     25a:	2c f0       	brlt	.+10     	; 0x266 <_fpadd_parts+0x18c>
     25c:	1c 01       	movw	r2, r24
     25e:	aa 24       	eor	r10, r10
     260:	bb 24       	eor	r11, r11
     262:	65 01       	movw	r12, r10
     264:	03 c0       	rjmp	.+6      	; 0x26c <_fpadd_parts+0x192>
     266:	ee 24       	eor	r14, r14
     268:	ff 24       	eor	r15, r15
     26a:	87 01       	movw	r16, r14
     26c:	11 96       	adiw	r26, 0x01	; 1
     26e:	9c 91       	ld	r25, X
     270:	d2 01       	movw	r26, r4
     272:	11 96       	adiw	r26, 0x01	; 1
     274:	8c 91       	ld	r24, X
     276:	98 17       	cp	r25, r24
     278:	09 f4       	brne	.+2      	; 0x27c <_fpadd_parts+0x1a2>
     27a:	45 c0       	rjmp	.+138    	; 0x306 <_fpadd_parts+0x22c>
     27c:	99 23       	and	r25, r25
     27e:	39 f0       	breq	.+14     	; 0x28e <_fpadd_parts+0x1b4>
     280:	a8 01       	movw	r20, r16
     282:	97 01       	movw	r18, r14
     284:	2a 19       	sub	r18, r10
     286:	3b 09       	sbc	r19, r11
     288:	4c 09       	sbc	r20, r12
     28a:	5d 09       	sbc	r21, r13
     28c:	06 c0       	rjmp	.+12     	; 0x29a <_fpadd_parts+0x1c0>
     28e:	a6 01       	movw	r20, r12
     290:	95 01       	movw	r18, r10
     292:	2e 19       	sub	r18, r14
     294:	3f 09       	sbc	r19, r15
     296:	40 0b       	sbc	r20, r16
     298:	51 0b       	sbc	r21, r17
     29a:	57 fd       	sbrc	r21, 7
     29c:	08 c0       	rjmp	.+16     	; 0x2ae <_fpadd_parts+0x1d4>
     29e:	11 82       	std	Z+1, r1	; 0x01
     2a0:	33 82       	std	Z+3, r3	; 0x03
     2a2:	22 82       	std	Z+2, r2	; 0x02
     2a4:	24 83       	std	Z+4, r18	; 0x04
     2a6:	35 83       	std	Z+5, r19	; 0x05
     2a8:	46 83       	std	Z+6, r20	; 0x06
     2aa:	57 83       	std	Z+7, r21	; 0x07
     2ac:	1d c0       	rjmp	.+58     	; 0x2e8 <_fpadd_parts+0x20e>
     2ae:	81 e0       	ldi	r24, 0x01	; 1
     2b0:	81 83       	std	Z+1, r24	; 0x01
     2b2:	33 82       	std	Z+3, r3	; 0x03
     2b4:	22 82       	std	Z+2, r2	; 0x02
     2b6:	88 27       	eor	r24, r24
     2b8:	99 27       	eor	r25, r25
     2ba:	dc 01       	movw	r26, r24
     2bc:	82 1b       	sub	r24, r18
     2be:	93 0b       	sbc	r25, r19
     2c0:	a4 0b       	sbc	r26, r20
     2c2:	b5 0b       	sbc	r27, r21
     2c4:	84 83       	std	Z+4, r24	; 0x04
     2c6:	95 83       	std	Z+5, r25	; 0x05
     2c8:	a6 83       	std	Z+6, r26	; 0x06
     2ca:	b7 83       	std	Z+7, r27	; 0x07
     2cc:	0d c0       	rjmp	.+26     	; 0x2e8 <_fpadd_parts+0x20e>
     2ce:	22 0f       	add	r18, r18
     2d0:	33 1f       	adc	r19, r19
     2d2:	44 1f       	adc	r20, r20
     2d4:	55 1f       	adc	r21, r21
     2d6:	24 83       	std	Z+4, r18	; 0x04
     2d8:	35 83       	std	Z+5, r19	; 0x05
     2da:	46 83       	std	Z+6, r20	; 0x06
     2dc:	57 83       	std	Z+7, r21	; 0x07
     2de:	82 81       	ldd	r24, Z+2	; 0x02
     2e0:	93 81       	ldd	r25, Z+3	; 0x03
     2e2:	01 97       	sbiw	r24, 0x01	; 1
     2e4:	93 83       	std	Z+3, r25	; 0x03
     2e6:	82 83       	std	Z+2, r24	; 0x02
     2e8:	24 81       	ldd	r18, Z+4	; 0x04
     2ea:	35 81       	ldd	r19, Z+5	; 0x05
     2ec:	46 81       	ldd	r20, Z+6	; 0x06
     2ee:	57 81       	ldd	r21, Z+7	; 0x07
     2f0:	da 01       	movw	r26, r20
     2f2:	c9 01       	movw	r24, r18
     2f4:	01 97       	sbiw	r24, 0x01	; 1
     2f6:	a1 09       	sbc	r26, r1
     2f8:	b1 09       	sbc	r27, r1
     2fa:	8f 5f       	subi	r24, 0xFF	; 255
     2fc:	9f 4f       	sbci	r25, 0xFF	; 255
     2fe:	af 4f       	sbci	r26, 0xFF	; 255
     300:	bf 43       	sbci	r27, 0x3F	; 63
     302:	28 f3       	brcs	.-54     	; 0x2ce <_fpadd_parts+0x1f4>
     304:	0b c0       	rjmp	.+22     	; 0x31c <_fpadd_parts+0x242>
     306:	91 83       	std	Z+1, r25	; 0x01
     308:	33 82       	std	Z+3, r3	; 0x03
     30a:	22 82       	std	Z+2, r2	; 0x02
     30c:	ea 0c       	add	r14, r10
     30e:	fb 1c       	adc	r15, r11
     310:	0c 1d       	adc	r16, r12
     312:	1d 1d       	adc	r17, r13
     314:	e4 82       	std	Z+4, r14	; 0x04
     316:	f5 82       	std	Z+5, r15	; 0x05
     318:	06 83       	std	Z+6, r16	; 0x06
     31a:	17 83       	std	Z+7, r17	; 0x07
     31c:	83 e0       	ldi	r24, 0x03	; 3
     31e:	80 83       	st	Z, r24
     320:	24 81       	ldd	r18, Z+4	; 0x04
     322:	35 81       	ldd	r19, Z+5	; 0x05
     324:	46 81       	ldd	r20, Z+6	; 0x06
     326:	57 81       	ldd	r21, Z+7	; 0x07
     328:	57 ff       	sbrs	r21, 7
     32a:	1a c0       	rjmp	.+52     	; 0x360 <_fpadd_parts+0x286>
     32c:	c9 01       	movw	r24, r18
     32e:	aa 27       	eor	r26, r26
     330:	97 fd       	sbrc	r25, 7
     332:	a0 95       	com	r26
     334:	ba 2f       	mov	r27, r26
     336:	81 70       	andi	r24, 0x01	; 1
     338:	90 70       	andi	r25, 0x00	; 0
     33a:	a0 70       	andi	r26, 0x00	; 0
     33c:	b0 70       	andi	r27, 0x00	; 0
     33e:	56 95       	lsr	r21
     340:	47 95       	ror	r20
     342:	37 95       	ror	r19
     344:	27 95       	ror	r18
     346:	82 2b       	or	r24, r18
     348:	93 2b       	or	r25, r19
     34a:	a4 2b       	or	r26, r20
     34c:	b5 2b       	or	r27, r21
     34e:	84 83       	std	Z+4, r24	; 0x04
     350:	95 83       	std	Z+5, r25	; 0x05
     352:	a6 83       	std	Z+6, r26	; 0x06
     354:	b7 83       	std	Z+7, r27	; 0x07
     356:	82 81       	ldd	r24, Z+2	; 0x02
     358:	93 81       	ldd	r25, Z+3	; 0x03
     35a:	01 96       	adiw	r24, 0x01	; 1
     35c:	93 83       	std	Z+3, r25	; 0x03
     35e:	82 83       	std	Z+2, r24	; 0x02
     360:	df 01       	movw	r26, r30
     362:	01 c0       	rjmp	.+2      	; 0x366 <_fpadd_parts+0x28c>
     364:	d2 01       	movw	r26, r4
     366:	cd 01       	movw	r24, r26
     368:	cd b7       	in	r28, 0x3d	; 61
     36a:	de b7       	in	r29, 0x3e	; 62
     36c:	e2 e1       	ldi	r30, 0x12	; 18
     36e:	0c 94 f5 18 	jmp	0x31ea	; 0x31ea <__epilogue_restores__>

00000372 <__subsf3>:
     372:	a0 e2       	ldi	r26, 0x20	; 32
     374:	b0 e0       	ldi	r27, 0x00	; 0
     376:	ef eb       	ldi	r30, 0xBF	; 191
     378:	f1 e0       	ldi	r31, 0x01	; 1
     37a:	0c 94 e5 18 	jmp	0x31ca	; 0x31ca <__prologue_saves__+0x18>
     37e:	69 83       	std	Y+1, r22	; 0x01
     380:	7a 83       	std	Y+2, r23	; 0x02
     382:	8b 83       	std	Y+3, r24	; 0x03
     384:	9c 83       	std	Y+4, r25	; 0x04
     386:	2d 83       	std	Y+5, r18	; 0x05
     388:	3e 83       	std	Y+6, r19	; 0x06
     38a:	4f 83       	std	Y+7, r20	; 0x07
     38c:	58 87       	std	Y+8, r21	; 0x08
     38e:	e9 e0       	ldi	r30, 0x09	; 9
     390:	ee 2e       	mov	r14, r30
     392:	f1 2c       	mov	r15, r1
     394:	ec 0e       	add	r14, r28
     396:	fd 1e       	adc	r15, r29
     398:	ce 01       	movw	r24, r28
     39a:	01 96       	adiw	r24, 0x01	; 1
     39c:	b7 01       	movw	r22, r14
     39e:	0e 94 ca 04 	call	0x994	; 0x994 <__unpack_f>
     3a2:	8e 01       	movw	r16, r28
     3a4:	0f 5e       	subi	r16, 0xEF	; 239
     3a6:	1f 4f       	sbci	r17, 0xFF	; 255
     3a8:	ce 01       	movw	r24, r28
     3aa:	05 96       	adiw	r24, 0x05	; 5
     3ac:	b8 01       	movw	r22, r16
     3ae:	0e 94 ca 04 	call	0x994	; 0x994 <__unpack_f>
     3b2:	8a 89       	ldd	r24, Y+18	; 0x12
     3b4:	91 e0       	ldi	r25, 0x01	; 1
     3b6:	89 27       	eor	r24, r25
     3b8:	8a 8b       	std	Y+18, r24	; 0x12
     3ba:	c7 01       	movw	r24, r14
     3bc:	b8 01       	movw	r22, r16
     3be:	ae 01       	movw	r20, r28
     3c0:	47 5e       	subi	r20, 0xE7	; 231
     3c2:	5f 4f       	sbci	r21, 0xFF	; 255
     3c4:	0e 94 6d 00 	call	0xda	; 0xda <_fpadd_parts>
     3c8:	0e 94 f5 03 	call	0x7ea	; 0x7ea <__pack_f>
     3cc:	a0 96       	adiw	r28, 0x20	; 32
     3ce:	e6 e0       	ldi	r30, 0x06	; 6
     3d0:	0c 94 01 19 	jmp	0x3202	; 0x3202 <__epilogue_restores__+0x18>

000003d4 <__addsf3>:
     3d4:	a0 e2       	ldi	r26, 0x20	; 32
     3d6:	b0 e0       	ldi	r27, 0x00	; 0
     3d8:	e0 ef       	ldi	r30, 0xF0	; 240
     3da:	f1 e0       	ldi	r31, 0x01	; 1
     3dc:	0c 94 e5 18 	jmp	0x31ca	; 0x31ca <__prologue_saves__+0x18>
     3e0:	69 83       	std	Y+1, r22	; 0x01
     3e2:	7a 83       	std	Y+2, r23	; 0x02
     3e4:	8b 83       	std	Y+3, r24	; 0x03
     3e6:	9c 83       	std	Y+4, r25	; 0x04
     3e8:	2d 83       	std	Y+5, r18	; 0x05
     3ea:	3e 83       	std	Y+6, r19	; 0x06
     3ec:	4f 83       	std	Y+7, r20	; 0x07
     3ee:	58 87       	std	Y+8, r21	; 0x08
     3f0:	f9 e0       	ldi	r31, 0x09	; 9
     3f2:	ef 2e       	mov	r14, r31
     3f4:	f1 2c       	mov	r15, r1
     3f6:	ec 0e       	add	r14, r28
     3f8:	fd 1e       	adc	r15, r29
     3fa:	ce 01       	movw	r24, r28
     3fc:	01 96       	adiw	r24, 0x01	; 1
     3fe:	b7 01       	movw	r22, r14
     400:	0e 94 ca 04 	call	0x994	; 0x994 <__unpack_f>
     404:	8e 01       	movw	r16, r28
     406:	0f 5e       	subi	r16, 0xEF	; 239
     408:	1f 4f       	sbci	r17, 0xFF	; 255
     40a:	ce 01       	movw	r24, r28
     40c:	05 96       	adiw	r24, 0x05	; 5
     40e:	b8 01       	movw	r22, r16
     410:	0e 94 ca 04 	call	0x994	; 0x994 <__unpack_f>
     414:	c7 01       	movw	r24, r14
     416:	b8 01       	movw	r22, r16
     418:	ae 01       	movw	r20, r28
     41a:	47 5e       	subi	r20, 0xE7	; 231
     41c:	5f 4f       	sbci	r21, 0xFF	; 255
     41e:	0e 94 6d 00 	call	0xda	; 0xda <_fpadd_parts>
     422:	0e 94 f5 03 	call	0x7ea	; 0x7ea <__pack_f>
     426:	a0 96       	adiw	r28, 0x20	; 32
     428:	e6 e0       	ldi	r30, 0x06	; 6
     42a:	0c 94 01 19 	jmp	0x3202	; 0x3202 <__epilogue_restores__+0x18>

0000042e <__mulsf3>:
     42e:	a0 e2       	ldi	r26, 0x20	; 32
     430:	b0 e0       	ldi	r27, 0x00	; 0
     432:	ed e1       	ldi	r30, 0x1D	; 29
     434:	f2 e0       	ldi	r31, 0x02	; 2
     436:	0c 94 d9 18 	jmp	0x31b2	; 0x31b2 <__prologue_saves__>
     43a:	69 83       	std	Y+1, r22	; 0x01
     43c:	7a 83       	std	Y+2, r23	; 0x02
     43e:	8b 83       	std	Y+3, r24	; 0x03
     440:	9c 83       	std	Y+4, r25	; 0x04
     442:	2d 83       	std	Y+5, r18	; 0x05
     444:	3e 83       	std	Y+6, r19	; 0x06
     446:	4f 83       	std	Y+7, r20	; 0x07
     448:	58 87       	std	Y+8, r21	; 0x08
     44a:	ce 01       	movw	r24, r28
     44c:	01 96       	adiw	r24, 0x01	; 1
     44e:	be 01       	movw	r22, r28
     450:	67 5f       	subi	r22, 0xF7	; 247
     452:	7f 4f       	sbci	r23, 0xFF	; 255
     454:	0e 94 ca 04 	call	0x994	; 0x994 <__unpack_f>
     458:	ce 01       	movw	r24, r28
     45a:	05 96       	adiw	r24, 0x05	; 5
     45c:	be 01       	movw	r22, r28
     45e:	6f 5e       	subi	r22, 0xEF	; 239
     460:	7f 4f       	sbci	r23, 0xFF	; 255
     462:	0e 94 ca 04 	call	0x994	; 0x994 <__unpack_f>
     466:	99 85       	ldd	r25, Y+9	; 0x09
     468:	92 30       	cpi	r25, 0x02	; 2
     46a:	88 f0       	brcs	.+34     	; 0x48e <__mulsf3+0x60>
     46c:	89 89       	ldd	r24, Y+17	; 0x11
     46e:	82 30       	cpi	r24, 0x02	; 2
     470:	c8 f0       	brcs	.+50     	; 0x4a4 <__mulsf3+0x76>
     472:	94 30       	cpi	r25, 0x04	; 4
     474:	19 f4       	brne	.+6      	; 0x47c <__mulsf3+0x4e>
     476:	82 30       	cpi	r24, 0x02	; 2
     478:	51 f4       	brne	.+20     	; 0x48e <__mulsf3+0x60>
     47a:	04 c0       	rjmp	.+8      	; 0x484 <__mulsf3+0x56>
     47c:	84 30       	cpi	r24, 0x04	; 4
     47e:	29 f4       	brne	.+10     	; 0x48a <__mulsf3+0x5c>
     480:	92 30       	cpi	r25, 0x02	; 2
     482:	81 f4       	brne	.+32     	; 0x4a4 <__mulsf3+0x76>
     484:	80 e6       	ldi	r24, 0x60	; 96
     486:	90 e0       	ldi	r25, 0x00	; 0
     488:	c6 c0       	rjmp	.+396    	; 0x616 <__mulsf3+0x1e8>
     48a:	92 30       	cpi	r25, 0x02	; 2
     48c:	49 f4       	brne	.+18     	; 0x4a0 <__mulsf3+0x72>
     48e:	20 e0       	ldi	r18, 0x00	; 0
     490:	9a 85       	ldd	r25, Y+10	; 0x0a
     492:	8a 89       	ldd	r24, Y+18	; 0x12
     494:	98 13       	cpse	r25, r24
     496:	21 e0       	ldi	r18, 0x01	; 1
     498:	2a 87       	std	Y+10, r18	; 0x0a
     49a:	ce 01       	movw	r24, r28
     49c:	09 96       	adiw	r24, 0x09	; 9
     49e:	bb c0       	rjmp	.+374    	; 0x616 <__mulsf3+0x1e8>
     4a0:	82 30       	cpi	r24, 0x02	; 2
     4a2:	49 f4       	brne	.+18     	; 0x4b6 <__mulsf3+0x88>
     4a4:	20 e0       	ldi	r18, 0x00	; 0
     4a6:	9a 85       	ldd	r25, Y+10	; 0x0a
     4a8:	8a 89       	ldd	r24, Y+18	; 0x12
     4aa:	98 13       	cpse	r25, r24
     4ac:	21 e0       	ldi	r18, 0x01	; 1
     4ae:	2a 8b       	std	Y+18, r18	; 0x12
     4b0:	ce 01       	movw	r24, r28
     4b2:	41 96       	adiw	r24, 0x11	; 17
     4b4:	b0 c0       	rjmp	.+352    	; 0x616 <__mulsf3+0x1e8>
     4b6:	2d 84       	ldd	r2, Y+13	; 0x0d
     4b8:	3e 84       	ldd	r3, Y+14	; 0x0e
     4ba:	4f 84       	ldd	r4, Y+15	; 0x0f
     4bc:	58 88       	ldd	r5, Y+16	; 0x10
     4be:	6d 88       	ldd	r6, Y+21	; 0x15
     4c0:	7e 88       	ldd	r7, Y+22	; 0x16
     4c2:	8f 88       	ldd	r8, Y+23	; 0x17
     4c4:	98 8c       	ldd	r9, Y+24	; 0x18
     4c6:	ee 24       	eor	r14, r14
     4c8:	ff 24       	eor	r15, r15
     4ca:	87 01       	movw	r16, r14
     4cc:	aa 24       	eor	r10, r10
     4ce:	bb 24       	eor	r11, r11
     4d0:	65 01       	movw	r12, r10
     4d2:	40 e0       	ldi	r20, 0x00	; 0
     4d4:	50 e0       	ldi	r21, 0x00	; 0
     4d6:	60 e0       	ldi	r22, 0x00	; 0
     4d8:	70 e0       	ldi	r23, 0x00	; 0
     4da:	e0 e0       	ldi	r30, 0x00	; 0
     4dc:	f0 e0       	ldi	r31, 0x00	; 0
     4de:	c1 01       	movw	r24, r2
     4e0:	81 70       	andi	r24, 0x01	; 1
     4e2:	90 70       	andi	r25, 0x00	; 0
     4e4:	89 2b       	or	r24, r25
     4e6:	e9 f0       	breq	.+58     	; 0x522 <__mulsf3+0xf4>
     4e8:	e6 0c       	add	r14, r6
     4ea:	f7 1c       	adc	r15, r7
     4ec:	08 1d       	adc	r16, r8
     4ee:	19 1d       	adc	r17, r9
     4f0:	9a 01       	movw	r18, r20
     4f2:	ab 01       	movw	r20, r22
     4f4:	2a 0d       	add	r18, r10
     4f6:	3b 1d       	adc	r19, r11
     4f8:	4c 1d       	adc	r20, r12
     4fa:	5d 1d       	adc	r21, r13
     4fc:	80 e0       	ldi	r24, 0x00	; 0
     4fe:	90 e0       	ldi	r25, 0x00	; 0
     500:	a0 e0       	ldi	r26, 0x00	; 0
     502:	b0 e0       	ldi	r27, 0x00	; 0
     504:	e6 14       	cp	r14, r6
     506:	f7 04       	cpc	r15, r7
     508:	08 05       	cpc	r16, r8
     50a:	19 05       	cpc	r17, r9
     50c:	20 f4       	brcc	.+8      	; 0x516 <__mulsf3+0xe8>
     50e:	81 e0       	ldi	r24, 0x01	; 1
     510:	90 e0       	ldi	r25, 0x00	; 0
     512:	a0 e0       	ldi	r26, 0x00	; 0
     514:	b0 e0       	ldi	r27, 0x00	; 0
     516:	ba 01       	movw	r22, r20
     518:	a9 01       	movw	r20, r18
     51a:	48 0f       	add	r20, r24
     51c:	59 1f       	adc	r21, r25
     51e:	6a 1f       	adc	r22, r26
     520:	7b 1f       	adc	r23, r27
     522:	aa 0c       	add	r10, r10
     524:	bb 1c       	adc	r11, r11
     526:	cc 1c       	adc	r12, r12
     528:	dd 1c       	adc	r13, r13
     52a:	97 fe       	sbrs	r9, 7
     52c:	08 c0       	rjmp	.+16     	; 0x53e <__mulsf3+0x110>
     52e:	81 e0       	ldi	r24, 0x01	; 1
     530:	90 e0       	ldi	r25, 0x00	; 0
     532:	a0 e0       	ldi	r26, 0x00	; 0
     534:	b0 e0       	ldi	r27, 0x00	; 0
     536:	a8 2a       	or	r10, r24
     538:	b9 2a       	or	r11, r25
     53a:	ca 2a       	or	r12, r26
     53c:	db 2a       	or	r13, r27
     53e:	31 96       	adiw	r30, 0x01	; 1
     540:	e0 32       	cpi	r30, 0x20	; 32
     542:	f1 05       	cpc	r31, r1
     544:	49 f0       	breq	.+18     	; 0x558 <__mulsf3+0x12a>
     546:	66 0c       	add	r6, r6
     548:	77 1c       	adc	r7, r7
     54a:	88 1c       	adc	r8, r8
     54c:	99 1c       	adc	r9, r9
     54e:	56 94       	lsr	r5
     550:	47 94       	ror	r4
     552:	37 94       	ror	r3
     554:	27 94       	ror	r2
     556:	c3 cf       	rjmp	.-122    	; 0x4de <__mulsf3+0xb0>
     558:	fa 85       	ldd	r31, Y+10	; 0x0a
     55a:	ea 89       	ldd	r30, Y+18	; 0x12
     55c:	2b 89       	ldd	r18, Y+19	; 0x13
     55e:	3c 89       	ldd	r19, Y+20	; 0x14
     560:	8b 85       	ldd	r24, Y+11	; 0x0b
     562:	9c 85       	ldd	r25, Y+12	; 0x0c
     564:	28 0f       	add	r18, r24
     566:	39 1f       	adc	r19, r25
     568:	2e 5f       	subi	r18, 0xFE	; 254
     56a:	3f 4f       	sbci	r19, 0xFF	; 255
     56c:	17 c0       	rjmp	.+46     	; 0x59c <__mulsf3+0x16e>
     56e:	ca 01       	movw	r24, r20
     570:	81 70       	andi	r24, 0x01	; 1
     572:	90 70       	andi	r25, 0x00	; 0
     574:	89 2b       	or	r24, r25
     576:	61 f0       	breq	.+24     	; 0x590 <__mulsf3+0x162>
     578:	16 95       	lsr	r17
     57a:	07 95       	ror	r16
     57c:	f7 94       	ror	r15
     57e:	e7 94       	ror	r14
     580:	80 e0       	ldi	r24, 0x00	; 0
     582:	90 e0       	ldi	r25, 0x00	; 0
     584:	a0 e0       	ldi	r26, 0x00	; 0
     586:	b0 e8       	ldi	r27, 0x80	; 128
     588:	e8 2a       	or	r14, r24
     58a:	f9 2a       	or	r15, r25
     58c:	0a 2b       	or	r16, r26
     58e:	1b 2b       	or	r17, r27
     590:	76 95       	lsr	r23
     592:	67 95       	ror	r22
     594:	57 95       	ror	r21
     596:	47 95       	ror	r20
     598:	2f 5f       	subi	r18, 0xFF	; 255
     59a:	3f 4f       	sbci	r19, 0xFF	; 255
     59c:	77 fd       	sbrc	r23, 7
     59e:	e7 cf       	rjmp	.-50     	; 0x56e <__mulsf3+0x140>
     5a0:	0c c0       	rjmp	.+24     	; 0x5ba <__mulsf3+0x18c>
     5a2:	44 0f       	add	r20, r20
     5a4:	55 1f       	adc	r21, r21
     5a6:	66 1f       	adc	r22, r22
     5a8:	77 1f       	adc	r23, r23
     5aa:	17 fd       	sbrc	r17, 7
     5ac:	41 60       	ori	r20, 0x01	; 1
     5ae:	ee 0c       	add	r14, r14
     5b0:	ff 1c       	adc	r15, r15
     5b2:	00 1f       	adc	r16, r16
     5b4:	11 1f       	adc	r17, r17
     5b6:	21 50       	subi	r18, 0x01	; 1
     5b8:	30 40       	sbci	r19, 0x00	; 0
     5ba:	40 30       	cpi	r20, 0x00	; 0
     5bc:	90 e0       	ldi	r25, 0x00	; 0
     5be:	59 07       	cpc	r21, r25
     5c0:	90 e0       	ldi	r25, 0x00	; 0
     5c2:	69 07       	cpc	r22, r25
     5c4:	90 e4       	ldi	r25, 0x40	; 64
     5c6:	79 07       	cpc	r23, r25
     5c8:	60 f3       	brcs	.-40     	; 0x5a2 <__mulsf3+0x174>
     5ca:	2b 8f       	std	Y+27, r18	; 0x1b
     5cc:	3c 8f       	std	Y+28, r19	; 0x1c
     5ce:	db 01       	movw	r26, r22
     5d0:	ca 01       	movw	r24, r20
     5d2:	8f 77       	andi	r24, 0x7F	; 127
     5d4:	90 70       	andi	r25, 0x00	; 0
     5d6:	a0 70       	andi	r26, 0x00	; 0
     5d8:	b0 70       	andi	r27, 0x00	; 0
     5da:	80 34       	cpi	r24, 0x40	; 64
     5dc:	91 05       	cpc	r25, r1
     5de:	a1 05       	cpc	r26, r1
     5e0:	b1 05       	cpc	r27, r1
     5e2:	61 f4       	brne	.+24     	; 0x5fc <__mulsf3+0x1ce>
     5e4:	47 fd       	sbrc	r20, 7
     5e6:	0a c0       	rjmp	.+20     	; 0x5fc <__mulsf3+0x1ce>
     5e8:	e1 14       	cp	r14, r1
     5ea:	f1 04       	cpc	r15, r1
     5ec:	01 05       	cpc	r16, r1
     5ee:	11 05       	cpc	r17, r1
     5f0:	29 f0       	breq	.+10     	; 0x5fc <__mulsf3+0x1ce>
     5f2:	40 5c       	subi	r20, 0xC0	; 192
     5f4:	5f 4f       	sbci	r21, 0xFF	; 255
     5f6:	6f 4f       	sbci	r22, 0xFF	; 255
     5f8:	7f 4f       	sbci	r23, 0xFF	; 255
     5fa:	40 78       	andi	r20, 0x80	; 128
     5fc:	1a 8e       	std	Y+26, r1	; 0x1a
     5fe:	fe 17       	cp	r31, r30
     600:	11 f0       	breq	.+4      	; 0x606 <__mulsf3+0x1d8>
     602:	81 e0       	ldi	r24, 0x01	; 1
     604:	8a 8f       	std	Y+26, r24	; 0x1a
     606:	4d 8f       	std	Y+29, r20	; 0x1d
     608:	5e 8f       	std	Y+30, r21	; 0x1e
     60a:	6f 8f       	std	Y+31, r22	; 0x1f
     60c:	78 a3       	std	Y+32, r23	; 0x20
     60e:	83 e0       	ldi	r24, 0x03	; 3
     610:	89 8f       	std	Y+25, r24	; 0x19
     612:	ce 01       	movw	r24, r28
     614:	49 96       	adiw	r24, 0x19	; 25
     616:	0e 94 f5 03 	call	0x7ea	; 0x7ea <__pack_f>
     61a:	a0 96       	adiw	r28, 0x20	; 32
     61c:	e2 e1       	ldi	r30, 0x12	; 18
     61e:	0c 94 f5 18 	jmp	0x31ea	; 0x31ea <__epilogue_restores__>

00000622 <__gtsf2>:
     622:	a8 e1       	ldi	r26, 0x18	; 24
     624:	b0 e0       	ldi	r27, 0x00	; 0
     626:	e7 e1       	ldi	r30, 0x17	; 23
     628:	f3 e0       	ldi	r31, 0x03	; 3
     62a:	0c 94 e5 18 	jmp	0x31ca	; 0x31ca <__prologue_saves__+0x18>
     62e:	69 83       	std	Y+1, r22	; 0x01
     630:	7a 83       	std	Y+2, r23	; 0x02
     632:	8b 83       	std	Y+3, r24	; 0x03
     634:	9c 83       	std	Y+4, r25	; 0x04
     636:	2d 83       	std	Y+5, r18	; 0x05
     638:	3e 83       	std	Y+6, r19	; 0x06
     63a:	4f 83       	std	Y+7, r20	; 0x07
     63c:	58 87       	std	Y+8, r21	; 0x08
     63e:	89 e0       	ldi	r24, 0x09	; 9
     640:	e8 2e       	mov	r14, r24
     642:	f1 2c       	mov	r15, r1
     644:	ec 0e       	add	r14, r28
     646:	fd 1e       	adc	r15, r29
     648:	ce 01       	movw	r24, r28
     64a:	01 96       	adiw	r24, 0x01	; 1
     64c:	b7 01       	movw	r22, r14
     64e:	0e 94 ca 04 	call	0x994	; 0x994 <__unpack_f>
     652:	8e 01       	movw	r16, r28
     654:	0f 5e       	subi	r16, 0xEF	; 239
     656:	1f 4f       	sbci	r17, 0xFF	; 255
     658:	ce 01       	movw	r24, r28
     65a:	05 96       	adiw	r24, 0x05	; 5
     65c:	b8 01       	movw	r22, r16
     65e:	0e 94 ca 04 	call	0x994	; 0x994 <__unpack_f>
     662:	89 85       	ldd	r24, Y+9	; 0x09
     664:	82 30       	cpi	r24, 0x02	; 2
     666:	40 f0       	brcs	.+16     	; 0x678 <__gtsf2+0x56>
     668:	89 89       	ldd	r24, Y+17	; 0x11
     66a:	82 30       	cpi	r24, 0x02	; 2
     66c:	28 f0       	brcs	.+10     	; 0x678 <__gtsf2+0x56>
     66e:	c7 01       	movw	r24, r14
     670:	b8 01       	movw	r22, r16
     672:	0e 94 42 05 	call	0xa84	; 0xa84 <__fpcmp_parts_f>
     676:	01 c0       	rjmp	.+2      	; 0x67a <__gtsf2+0x58>
     678:	8f ef       	ldi	r24, 0xFF	; 255
     67a:	68 96       	adiw	r28, 0x18	; 24
     67c:	e6 e0       	ldi	r30, 0x06	; 6
     67e:	0c 94 01 19 	jmp	0x3202	; 0x3202 <__epilogue_restores__+0x18>

00000682 <__gesf2>:
     682:	a8 e1       	ldi	r26, 0x18	; 24
     684:	b0 e0       	ldi	r27, 0x00	; 0
     686:	e7 e4       	ldi	r30, 0x47	; 71
     688:	f3 e0       	ldi	r31, 0x03	; 3
     68a:	0c 94 e5 18 	jmp	0x31ca	; 0x31ca <__prologue_saves__+0x18>
     68e:	69 83       	std	Y+1, r22	; 0x01
     690:	7a 83       	std	Y+2, r23	; 0x02
     692:	8b 83       	std	Y+3, r24	; 0x03
     694:	9c 83       	std	Y+4, r25	; 0x04
     696:	2d 83       	std	Y+5, r18	; 0x05
     698:	3e 83       	std	Y+6, r19	; 0x06
     69a:	4f 83       	std	Y+7, r20	; 0x07
     69c:	58 87       	std	Y+8, r21	; 0x08
     69e:	89 e0       	ldi	r24, 0x09	; 9
     6a0:	e8 2e       	mov	r14, r24
     6a2:	f1 2c       	mov	r15, r1
     6a4:	ec 0e       	add	r14, r28
     6a6:	fd 1e       	adc	r15, r29
     6a8:	ce 01       	movw	r24, r28
     6aa:	01 96       	adiw	r24, 0x01	; 1
     6ac:	b7 01       	movw	r22, r14
     6ae:	0e 94 ca 04 	call	0x994	; 0x994 <__unpack_f>
     6b2:	8e 01       	movw	r16, r28
     6b4:	0f 5e       	subi	r16, 0xEF	; 239
     6b6:	1f 4f       	sbci	r17, 0xFF	; 255
     6b8:	ce 01       	movw	r24, r28
     6ba:	05 96       	adiw	r24, 0x05	; 5
     6bc:	b8 01       	movw	r22, r16
     6be:	0e 94 ca 04 	call	0x994	; 0x994 <__unpack_f>
     6c2:	89 85       	ldd	r24, Y+9	; 0x09
     6c4:	82 30       	cpi	r24, 0x02	; 2
     6c6:	40 f0       	brcs	.+16     	; 0x6d8 <__gesf2+0x56>
     6c8:	89 89       	ldd	r24, Y+17	; 0x11
     6ca:	82 30       	cpi	r24, 0x02	; 2
     6cc:	28 f0       	brcs	.+10     	; 0x6d8 <__gesf2+0x56>
     6ce:	c7 01       	movw	r24, r14
     6d0:	b8 01       	movw	r22, r16
     6d2:	0e 94 42 05 	call	0xa84	; 0xa84 <__fpcmp_parts_f>
     6d6:	01 c0       	rjmp	.+2      	; 0x6da <__gesf2+0x58>
     6d8:	8f ef       	ldi	r24, 0xFF	; 255
     6da:	68 96       	adiw	r28, 0x18	; 24
     6dc:	e6 e0       	ldi	r30, 0x06	; 6
     6de:	0c 94 01 19 	jmp	0x3202	; 0x3202 <__epilogue_restores__+0x18>

000006e2 <__ltsf2>:
     6e2:	a8 e1       	ldi	r26, 0x18	; 24
     6e4:	b0 e0       	ldi	r27, 0x00	; 0
     6e6:	e7 e7       	ldi	r30, 0x77	; 119
     6e8:	f3 e0       	ldi	r31, 0x03	; 3
     6ea:	0c 94 e5 18 	jmp	0x31ca	; 0x31ca <__prologue_saves__+0x18>
     6ee:	69 83       	std	Y+1, r22	; 0x01
     6f0:	7a 83       	std	Y+2, r23	; 0x02
     6f2:	8b 83       	std	Y+3, r24	; 0x03
     6f4:	9c 83       	std	Y+4, r25	; 0x04
     6f6:	2d 83       	std	Y+5, r18	; 0x05
     6f8:	3e 83       	std	Y+6, r19	; 0x06
     6fa:	4f 83       	std	Y+7, r20	; 0x07
     6fc:	58 87       	std	Y+8, r21	; 0x08
     6fe:	89 e0       	ldi	r24, 0x09	; 9
     700:	e8 2e       	mov	r14, r24
     702:	f1 2c       	mov	r15, r1
     704:	ec 0e       	add	r14, r28
     706:	fd 1e       	adc	r15, r29
     708:	ce 01       	movw	r24, r28
     70a:	01 96       	adiw	r24, 0x01	; 1
     70c:	b7 01       	movw	r22, r14
     70e:	0e 94 ca 04 	call	0x994	; 0x994 <__unpack_f>
     712:	8e 01       	movw	r16, r28
     714:	0f 5e       	subi	r16, 0xEF	; 239
     716:	1f 4f       	sbci	r17, 0xFF	; 255
     718:	ce 01       	movw	r24, r28
     71a:	05 96       	adiw	r24, 0x05	; 5
     71c:	b8 01       	movw	r22, r16
     71e:	0e 94 ca 04 	call	0x994	; 0x994 <__unpack_f>
     722:	89 85       	ldd	r24, Y+9	; 0x09
     724:	82 30       	cpi	r24, 0x02	; 2
     726:	40 f0       	brcs	.+16     	; 0x738 <__ltsf2+0x56>
     728:	89 89       	ldd	r24, Y+17	; 0x11
     72a:	82 30       	cpi	r24, 0x02	; 2
     72c:	28 f0       	brcs	.+10     	; 0x738 <__ltsf2+0x56>
     72e:	c7 01       	movw	r24, r14
     730:	b8 01       	movw	r22, r16
     732:	0e 94 42 05 	call	0xa84	; 0xa84 <__fpcmp_parts_f>
     736:	01 c0       	rjmp	.+2      	; 0x73a <__ltsf2+0x58>
     738:	81 e0       	ldi	r24, 0x01	; 1
     73a:	68 96       	adiw	r28, 0x18	; 24
     73c:	e6 e0       	ldi	r30, 0x06	; 6
     73e:	0c 94 01 19 	jmp	0x3202	; 0x3202 <__epilogue_restores__+0x18>

00000742 <__fixsfsi>:
     742:	ac e0       	ldi	r26, 0x0C	; 12
     744:	b0 e0       	ldi	r27, 0x00	; 0
     746:	e7 ea       	ldi	r30, 0xA7	; 167
     748:	f3 e0       	ldi	r31, 0x03	; 3
     74a:	0c 94 e9 18 	jmp	0x31d2	; 0x31d2 <__prologue_saves__+0x20>
     74e:	69 83       	std	Y+1, r22	; 0x01
     750:	7a 83       	std	Y+2, r23	; 0x02
     752:	8b 83       	std	Y+3, r24	; 0x03
     754:	9c 83       	std	Y+4, r25	; 0x04
     756:	ce 01       	movw	r24, r28
     758:	01 96       	adiw	r24, 0x01	; 1
     75a:	be 01       	movw	r22, r28
     75c:	6b 5f       	subi	r22, 0xFB	; 251
     75e:	7f 4f       	sbci	r23, 0xFF	; 255
     760:	0e 94 ca 04 	call	0x994	; 0x994 <__unpack_f>
     764:	8d 81       	ldd	r24, Y+5	; 0x05
     766:	82 30       	cpi	r24, 0x02	; 2
     768:	61 f1       	breq	.+88     	; 0x7c2 <__fixsfsi+0x80>
     76a:	82 30       	cpi	r24, 0x02	; 2
     76c:	50 f1       	brcs	.+84     	; 0x7c2 <__fixsfsi+0x80>
     76e:	84 30       	cpi	r24, 0x04	; 4
     770:	21 f4       	brne	.+8      	; 0x77a <__fixsfsi+0x38>
     772:	8e 81       	ldd	r24, Y+6	; 0x06
     774:	88 23       	and	r24, r24
     776:	51 f1       	breq	.+84     	; 0x7cc <__fixsfsi+0x8a>
     778:	2e c0       	rjmp	.+92     	; 0x7d6 <__fixsfsi+0x94>
     77a:	2f 81       	ldd	r18, Y+7	; 0x07
     77c:	38 85       	ldd	r19, Y+8	; 0x08
     77e:	37 fd       	sbrc	r19, 7
     780:	20 c0       	rjmp	.+64     	; 0x7c2 <__fixsfsi+0x80>
     782:	6e 81       	ldd	r22, Y+6	; 0x06
     784:	2f 31       	cpi	r18, 0x1F	; 31
     786:	31 05       	cpc	r19, r1
     788:	1c f0       	brlt	.+6      	; 0x790 <__fixsfsi+0x4e>
     78a:	66 23       	and	r22, r22
     78c:	f9 f0       	breq	.+62     	; 0x7cc <__fixsfsi+0x8a>
     78e:	23 c0       	rjmp	.+70     	; 0x7d6 <__fixsfsi+0x94>
     790:	8e e1       	ldi	r24, 0x1E	; 30
     792:	90 e0       	ldi	r25, 0x00	; 0
     794:	82 1b       	sub	r24, r18
     796:	93 0b       	sbc	r25, r19
     798:	29 85       	ldd	r18, Y+9	; 0x09
     79a:	3a 85       	ldd	r19, Y+10	; 0x0a
     79c:	4b 85       	ldd	r20, Y+11	; 0x0b
     79e:	5c 85       	ldd	r21, Y+12	; 0x0c
     7a0:	04 c0       	rjmp	.+8      	; 0x7aa <__fixsfsi+0x68>
     7a2:	56 95       	lsr	r21
     7a4:	47 95       	ror	r20
     7a6:	37 95       	ror	r19
     7a8:	27 95       	ror	r18
     7aa:	8a 95       	dec	r24
     7ac:	d2 f7       	brpl	.-12     	; 0x7a2 <__fixsfsi+0x60>
     7ae:	66 23       	and	r22, r22
     7b0:	b1 f0       	breq	.+44     	; 0x7de <__fixsfsi+0x9c>
     7b2:	50 95       	com	r21
     7b4:	40 95       	com	r20
     7b6:	30 95       	com	r19
     7b8:	21 95       	neg	r18
     7ba:	3f 4f       	sbci	r19, 0xFF	; 255
     7bc:	4f 4f       	sbci	r20, 0xFF	; 255
     7be:	5f 4f       	sbci	r21, 0xFF	; 255
     7c0:	0e c0       	rjmp	.+28     	; 0x7de <__fixsfsi+0x9c>
     7c2:	20 e0       	ldi	r18, 0x00	; 0
     7c4:	30 e0       	ldi	r19, 0x00	; 0
     7c6:	40 e0       	ldi	r20, 0x00	; 0
     7c8:	50 e0       	ldi	r21, 0x00	; 0
     7ca:	09 c0       	rjmp	.+18     	; 0x7de <__fixsfsi+0x9c>
     7cc:	2f ef       	ldi	r18, 0xFF	; 255
     7ce:	3f ef       	ldi	r19, 0xFF	; 255
     7d0:	4f ef       	ldi	r20, 0xFF	; 255
     7d2:	5f e7       	ldi	r21, 0x7F	; 127
     7d4:	04 c0       	rjmp	.+8      	; 0x7de <__fixsfsi+0x9c>
     7d6:	20 e0       	ldi	r18, 0x00	; 0
     7d8:	30 e0       	ldi	r19, 0x00	; 0
     7da:	40 e0       	ldi	r20, 0x00	; 0
     7dc:	50 e8       	ldi	r21, 0x80	; 128
     7de:	b9 01       	movw	r22, r18
     7e0:	ca 01       	movw	r24, r20
     7e2:	2c 96       	adiw	r28, 0x0c	; 12
     7e4:	e2 e0       	ldi	r30, 0x02	; 2
     7e6:	0c 94 05 19 	jmp	0x320a	; 0x320a <__epilogue_restores__+0x20>

000007ea <__pack_f>:
     7ea:	df 92       	push	r13
     7ec:	ef 92       	push	r14
     7ee:	ff 92       	push	r15
     7f0:	0f 93       	push	r16
     7f2:	1f 93       	push	r17
     7f4:	fc 01       	movw	r30, r24
     7f6:	e4 80       	ldd	r14, Z+4	; 0x04
     7f8:	f5 80       	ldd	r15, Z+5	; 0x05
     7fa:	06 81       	ldd	r16, Z+6	; 0x06
     7fc:	17 81       	ldd	r17, Z+7	; 0x07
     7fe:	d1 80       	ldd	r13, Z+1	; 0x01
     800:	80 81       	ld	r24, Z
     802:	82 30       	cpi	r24, 0x02	; 2
     804:	48 f4       	brcc	.+18     	; 0x818 <__pack_f+0x2e>
     806:	80 e0       	ldi	r24, 0x00	; 0
     808:	90 e0       	ldi	r25, 0x00	; 0
     80a:	a0 e1       	ldi	r26, 0x10	; 16
     80c:	b0 e0       	ldi	r27, 0x00	; 0
     80e:	e8 2a       	or	r14, r24
     810:	f9 2a       	or	r15, r25
     812:	0a 2b       	or	r16, r26
     814:	1b 2b       	or	r17, r27
     816:	a5 c0       	rjmp	.+330    	; 0x962 <__stack+0x103>
     818:	84 30       	cpi	r24, 0x04	; 4
     81a:	09 f4       	brne	.+2      	; 0x81e <__pack_f+0x34>
     81c:	9f c0       	rjmp	.+318    	; 0x95c <__stack+0xfd>
     81e:	82 30       	cpi	r24, 0x02	; 2
     820:	21 f4       	brne	.+8      	; 0x82a <__pack_f+0x40>
     822:	ee 24       	eor	r14, r14
     824:	ff 24       	eor	r15, r15
     826:	87 01       	movw	r16, r14
     828:	05 c0       	rjmp	.+10     	; 0x834 <__pack_f+0x4a>
     82a:	e1 14       	cp	r14, r1
     82c:	f1 04       	cpc	r15, r1
     82e:	01 05       	cpc	r16, r1
     830:	11 05       	cpc	r17, r1
     832:	19 f4       	brne	.+6      	; 0x83a <__pack_f+0x50>
     834:	e0 e0       	ldi	r30, 0x00	; 0
     836:	f0 e0       	ldi	r31, 0x00	; 0
     838:	96 c0       	rjmp	.+300    	; 0x966 <__stack+0x107>
     83a:	62 81       	ldd	r22, Z+2	; 0x02
     83c:	73 81       	ldd	r23, Z+3	; 0x03
     83e:	9f ef       	ldi	r25, 0xFF	; 255
     840:	62 38       	cpi	r22, 0x82	; 130
     842:	79 07       	cpc	r23, r25
     844:	0c f0       	brlt	.+2      	; 0x848 <__pack_f+0x5e>
     846:	5b c0       	rjmp	.+182    	; 0x8fe <__stack+0x9f>
     848:	22 e8       	ldi	r18, 0x82	; 130
     84a:	3f ef       	ldi	r19, 0xFF	; 255
     84c:	26 1b       	sub	r18, r22
     84e:	37 0b       	sbc	r19, r23
     850:	2a 31       	cpi	r18, 0x1A	; 26
     852:	31 05       	cpc	r19, r1
     854:	2c f0       	brlt	.+10     	; 0x860 <__stack+0x1>
     856:	20 e0       	ldi	r18, 0x00	; 0
     858:	30 e0       	ldi	r19, 0x00	; 0
     85a:	40 e0       	ldi	r20, 0x00	; 0
     85c:	50 e0       	ldi	r21, 0x00	; 0
     85e:	2a c0       	rjmp	.+84     	; 0x8b4 <__stack+0x55>
     860:	b8 01       	movw	r22, r16
     862:	a7 01       	movw	r20, r14
     864:	02 2e       	mov	r0, r18
     866:	04 c0       	rjmp	.+8      	; 0x870 <__stack+0x11>
     868:	76 95       	lsr	r23
     86a:	67 95       	ror	r22
     86c:	57 95       	ror	r21
     86e:	47 95       	ror	r20
     870:	0a 94       	dec	r0
     872:	d2 f7       	brpl	.-12     	; 0x868 <__stack+0x9>
     874:	81 e0       	ldi	r24, 0x01	; 1
     876:	90 e0       	ldi	r25, 0x00	; 0
     878:	a0 e0       	ldi	r26, 0x00	; 0
     87a:	b0 e0       	ldi	r27, 0x00	; 0
     87c:	04 c0       	rjmp	.+8      	; 0x886 <__stack+0x27>
     87e:	88 0f       	add	r24, r24
     880:	99 1f       	adc	r25, r25
     882:	aa 1f       	adc	r26, r26
     884:	bb 1f       	adc	r27, r27
     886:	2a 95       	dec	r18
     888:	d2 f7       	brpl	.-12     	; 0x87e <__stack+0x1f>
     88a:	01 97       	sbiw	r24, 0x01	; 1
     88c:	a1 09       	sbc	r26, r1
     88e:	b1 09       	sbc	r27, r1
     890:	8e 21       	and	r24, r14
     892:	9f 21       	and	r25, r15
     894:	a0 23       	and	r26, r16
     896:	b1 23       	and	r27, r17
     898:	00 97       	sbiw	r24, 0x00	; 0
     89a:	a1 05       	cpc	r26, r1
     89c:	b1 05       	cpc	r27, r1
     89e:	21 f0       	breq	.+8      	; 0x8a8 <__stack+0x49>
     8a0:	81 e0       	ldi	r24, 0x01	; 1
     8a2:	90 e0       	ldi	r25, 0x00	; 0
     8a4:	a0 e0       	ldi	r26, 0x00	; 0
     8a6:	b0 e0       	ldi	r27, 0x00	; 0
     8a8:	9a 01       	movw	r18, r20
     8aa:	ab 01       	movw	r20, r22
     8ac:	28 2b       	or	r18, r24
     8ae:	39 2b       	or	r19, r25
     8b0:	4a 2b       	or	r20, r26
     8b2:	5b 2b       	or	r21, r27
     8b4:	da 01       	movw	r26, r20
     8b6:	c9 01       	movw	r24, r18
     8b8:	8f 77       	andi	r24, 0x7F	; 127
     8ba:	90 70       	andi	r25, 0x00	; 0
     8bc:	a0 70       	andi	r26, 0x00	; 0
     8be:	b0 70       	andi	r27, 0x00	; 0
     8c0:	80 34       	cpi	r24, 0x40	; 64
     8c2:	91 05       	cpc	r25, r1
     8c4:	a1 05       	cpc	r26, r1
     8c6:	b1 05       	cpc	r27, r1
     8c8:	39 f4       	brne	.+14     	; 0x8d8 <__stack+0x79>
     8ca:	27 ff       	sbrs	r18, 7
     8cc:	09 c0       	rjmp	.+18     	; 0x8e0 <__stack+0x81>
     8ce:	20 5c       	subi	r18, 0xC0	; 192
     8d0:	3f 4f       	sbci	r19, 0xFF	; 255
     8d2:	4f 4f       	sbci	r20, 0xFF	; 255
     8d4:	5f 4f       	sbci	r21, 0xFF	; 255
     8d6:	04 c0       	rjmp	.+8      	; 0x8e0 <__stack+0x81>
     8d8:	21 5c       	subi	r18, 0xC1	; 193
     8da:	3f 4f       	sbci	r19, 0xFF	; 255
     8dc:	4f 4f       	sbci	r20, 0xFF	; 255
     8de:	5f 4f       	sbci	r21, 0xFF	; 255
     8e0:	e0 e0       	ldi	r30, 0x00	; 0
     8e2:	f0 e0       	ldi	r31, 0x00	; 0
     8e4:	20 30       	cpi	r18, 0x00	; 0
     8e6:	a0 e0       	ldi	r26, 0x00	; 0
     8e8:	3a 07       	cpc	r19, r26
     8ea:	a0 e0       	ldi	r26, 0x00	; 0
     8ec:	4a 07       	cpc	r20, r26
     8ee:	a0 e4       	ldi	r26, 0x40	; 64
     8f0:	5a 07       	cpc	r21, r26
     8f2:	10 f0       	brcs	.+4      	; 0x8f8 <__stack+0x99>
     8f4:	e1 e0       	ldi	r30, 0x01	; 1
     8f6:	f0 e0       	ldi	r31, 0x00	; 0
     8f8:	79 01       	movw	r14, r18
     8fa:	8a 01       	movw	r16, r20
     8fc:	27 c0       	rjmp	.+78     	; 0x94c <__stack+0xed>
     8fe:	60 38       	cpi	r22, 0x80	; 128
     900:	71 05       	cpc	r23, r1
     902:	64 f5       	brge	.+88     	; 0x95c <__stack+0xfd>
     904:	fb 01       	movw	r30, r22
     906:	e1 58       	subi	r30, 0x81	; 129
     908:	ff 4f       	sbci	r31, 0xFF	; 255
     90a:	d8 01       	movw	r26, r16
     90c:	c7 01       	movw	r24, r14
     90e:	8f 77       	andi	r24, 0x7F	; 127
     910:	90 70       	andi	r25, 0x00	; 0
     912:	a0 70       	andi	r26, 0x00	; 0
     914:	b0 70       	andi	r27, 0x00	; 0
     916:	80 34       	cpi	r24, 0x40	; 64
     918:	91 05       	cpc	r25, r1
     91a:	a1 05       	cpc	r26, r1
     91c:	b1 05       	cpc	r27, r1
     91e:	39 f4       	brne	.+14     	; 0x92e <__stack+0xcf>
     920:	e7 fe       	sbrs	r14, 7
     922:	0d c0       	rjmp	.+26     	; 0x93e <__stack+0xdf>
     924:	80 e4       	ldi	r24, 0x40	; 64
     926:	90 e0       	ldi	r25, 0x00	; 0
     928:	a0 e0       	ldi	r26, 0x00	; 0
     92a:	b0 e0       	ldi	r27, 0x00	; 0
     92c:	04 c0       	rjmp	.+8      	; 0x936 <__stack+0xd7>
     92e:	8f e3       	ldi	r24, 0x3F	; 63
     930:	90 e0       	ldi	r25, 0x00	; 0
     932:	a0 e0       	ldi	r26, 0x00	; 0
     934:	b0 e0       	ldi	r27, 0x00	; 0
     936:	e8 0e       	add	r14, r24
     938:	f9 1e       	adc	r15, r25
     93a:	0a 1f       	adc	r16, r26
     93c:	1b 1f       	adc	r17, r27
     93e:	17 ff       	sbrs	r17, 7
     940:	05 c0       	rjmp	.+10     	; 0x94c <__stack+0xed>
     942:	16 95       	lsr	r17
     944:	07 95       	ror	r16
     946:	f7 94       	ror	r15
     948:	e7 94       	ror	r14
     94a:	31 96       	adiw	r30, 0x01	; 1
     94c:	87 e0       	ldi	r24, 0x07	; 7
     94e:	16 95       	lsr	r17
     950:	07 95       	ror	r16
     952:	f7 94       	ror	r15
     954:	e7 94       	ror	r14
     956:	8a 95       	dec	r24
     958:	d1 f7       	brne	.-12     	; 0x94e <__stack+0xef>
     95a:	05 c0       	rjmp	.+10     	; 0x966 <__stack+0x107>
     95c:	ee 24       	eor	r14, r14
     95e:	ff 24       	eor	r15, r15
     960:	87 01       	movw	r16, r14
     962:	ef ef       	ldi	r30, 0xFF	; 255
     964:	f0 e0       	ldi	r31, 0x00	; 0
     966:	6e 2f       	mov	r22, r30
     968:	67 95       	ror	r22
     96a:	66 27       	eor	r22, r22
     96c:	67 95       	ror	r22
     96e:	90 2f       	mov	r25, r16
     970:	9f 77       	andi	r25, 0x7F	; 127
     972:	d7 94       	ror	r13
     974:	dd 24       	eor	r13, r13
     976:	d7 94       	ror	r13
     978:	8e 2f       	mov	r24, r30
     97a:	86 95       	lsr	r24
     97c:	49 2f       	mov	r20, r25
     97e:	46 2b       	or	r20, r22
     980:	58 2f       	mov	r21, r24
     982:	5d 29       	or	r21, r13
     984:	b7 01       	movw	r22, r14
     986:	ca 01       	movw	r24, r20
     988:	1f 91       	pop	r17
     98a:	0f 91       	pop	r16
     98c:	ff 90       	pop	r15
     98e:	ef 90       	pop	r14
     990:	df 90       	pop	r13
     992:	08 95       	ret

00000994 <__unpack_f>:
     994:	fc 01       	movw	r30, r24
     996:	db 01       	movw	r26, r22
     998:	40 81       	ld	r20, Z
     99a:	51 81       	ldd	r21, Z+1	; 0x01
     99c:	22 81       	ldd	r18, Z+2	; 0x02
     99e:	62 2f       	mov	r22, r18
     9a0:	6f 77       	andi	r22, 0x7F	; 127
     9a2:	70 e0       	ldi	r23, 0x00	; 0
     9a4:	22 1f       	adc	r18, r18
     9a6:	22 27       	eor	r18, r18
     9a8:	22 1f       	adc	r18, r18
     9aa:	93 81       	ldd	r25, Z+3	; 0x03
     9ac:	89 2f       	mov	r24, r25
     9ae:	88 0f       	add	r24, r24
     9b0:	82 2b       	or	r24, r18
     9b2:	28 2f       	mov	r18, r24
     9b4:	30 e0       	ldi	r19, 0x00	; 0
     9b6:	99 1f       	adc	r25, r25
     9b8:	99 27       	eor	r25, r25
     9ba:	99 1f       	adc	r25, r25
     9bc:	11 96       	adiw	r26, 0x01	; 1
     9be:	9c 93       	st	X, r25
     9c0:	11 97       	sbiw	r26, 0x01	; 1
     9c2:	21 15       	cp	r18, r1
     9c4:	31 05       	cpc	r19, r1
     9c6:	a9 f5       	brne	.+106    	; 0xa32 <__unpack_f+0x9e>
     9c8:	41 15       	cp	r20, r1
     9ca:	51 05       	cpc	r21, r1
     9cc:	61 05       	cpc	r22, r1
     9ce:	71 05       	cpc	r23, r1
     9d0:	11 f4       	brne	.+4      	; 0x9d6 <__unpack_f+0x42>
     9d2:	82 e0       	ldi	r24, 0x02	; 2
     9d4:	37 c0       	rjmp	.+110    	; 0xa44 <__unpack_f+0xb0>
     9d6:	82 e8       	ldi	r24, 0x82	; 130
     9d8:	9f ef       	ldi	r25, 0xFF	; 255
     9da:	13 96       	adiw	r26, 0x03	; 3
     9dc:	9c 93       	st	X, r25
     9de:	8e 93       	st	-X, r24
     9e0:	12 97       	sbiw	r26, 0x02	; 2
     9e2:	9a 01       	movw	r18, r20
     9e4:	ab 01       	movw	r20, r22
     9e6:	67 e0       	ldi	r22, 0x07	; 7
     9e8:	22 0f       	add	r18, r18
     9ea:	33 1f       	adc	r19, r19
     9ec:	44 1f       	adc	r20, r20
     9ee:	55 1f       	adc	r21, r21
     9f0:	6a 95       	dec	r22
     9f2:	d1 f7       	brne	.-12     	; 0x9e8 <__unpack_f+0x54>
     9f4:	83 e0       	ldi	r24, 0x03	; 3
     9f6:	8c 93       	st	X, r24
     9f8:	0d c0       	rjmp	.+26     	; 0xa14 <__unpack_f+0x80>
     9fa:	22 0f       	add	r18, r18
     9fc:	33 1f       	adc	r19, r19
     9fe:	44 1f       	adc	r20, r20
     a00:	55 1f       	adc	r21, r21
     a02:	12 96       	adiw	r26, 0x02	; 2
     a04:	8d 91       	ld	r24, X+
     a06:	9c 91       	ld	r25, X
     a08:	13 97       	sbiw	r26, 0x03	; 3
     a0a:	01 97       	sbiw	r24, 0x01	; 1
     a0c:	13 96       	adiw	r26, 0x03	; 3
     a0e:	9c 93       	st	X, r25
     a10:	8e 93       	st	-X, r24
     a12:	12 97       	sbiw	r26, 0x02	; 2
     a14:	20 30       	cpi	r18, 0x00	; 0
     a16:	80 e0       	ldi	r24, 0x00	; 0
     a18:	38 07       	cpc	r19, r24
     a1a:	80 e0       	ldi	r24, 0x00	; 0
     a1c:	48 07       	cpc	r20, r24
     a1e:	80 e4       	ldi	r24, 0x40	; 64
     a20:	58 07       	cpc	r21, r24
     a22:	58 f3       	brcs	.-42     	; 0x9fa <__unpack_f+0x66>
     a24:	14 96       	adiw	r26, 0x04	; 4
     a26:	2d 93       	st	X+, r18
     a28:	3d 93       	st	X+, r19
     a2a:	4d 93       	st	X+, r20
     a2c:	5c 93       	st	X, r21
     a2e:	17 97       	sbiw	r26, 0x07	; 7
     a30:	08 95       	ret
     a32:	2f 3f       	cpi	r18, 0xFF	; 255
     a34:	31 05       	cpc	r19, r1
     a36:	79 f4       	brne	.+30     	; 0xa56 <__unpack_f+0xc2>
     a38:	41 15       	cp	r20, r1
     a3a:	51 05       	cpc	r21, r1
     a3c:	61 05       	cpc	r22, r1
     a3e:	71 05       	cpc	r23, r1
     a40:	19 f4       	brne	.+6      	; 0xa48 <__unpack_f+0xb4>
     a42:	84 e0       	ldi	r24, 0x04	; 4
     a44:	8c 93       	st	X, r24
     a46:	08 95       	ret
     a48:	64 ff       	sbrs	r22, 4
     a4a:	03 c0       	rjmp	.+6      	; 0xa52 <__unpack_f+0xbe>
     a4c:	81 e0       	ldi	r24, 0x01	; 1
     a4e:	8c 93       	st	X, r24
     a50:	12 c0       	rjmp	.+36     	; 0xa76 <__unpack_f+0xe2>
     a52:	1c 92       	st	X, r1
     a54:	10 c0       	rjmp	.+32     	; 0xa76 <__unpack_f+0xe2>
     a56:	2f 57       	subi	r18, 0x7F	; 127
     a58:	30 40       	sbci	r19, 0x00	; 0
     a5a:	13 96       	adiw	r26, 0x03	; 3
     a5c:	3c 93       	st	X, r19
     a5e:	2e 93       	st	-X, r18
     a60:	12 97       	sbiw	r26, 0x02	; 2
     a62:	83 e0       	ldi	r24, 0x03	; 3
     a64:	8c 93       	st	X, r24
     a66:	87 e0       	ldi	r24, 0x07	; 7
     a68:	44 0f       	add	r20, r20
     a6a:	55 1f       	adc	r21, r21
     a6c:	66 1f       	adc	r22, r22
     a6e:	77 1f       	adc	r23, r23
     a70:	8a 95       	dec	r24
     a72:	d1 f7       	brne	.-12     	; 0xa68 <__unpack_f+0xd4>
     a74:	70 64       	ori	r23, 0x40	; 64
     a76:	14 96       	adiw	r26, 0x04	; 4
     a78:	4d 93       	st	X+, r20
     a7a:	5d 93       	st	X+, r21
     a7c:	6d 93       	st	X+, r22
     a7e:	7c 93       	st	X, r23
     a80:	17 97       	sbiw	r26, 0x07	; 7
     a82:	08 95       	ret

00000a84 <__fpcmp_parts_f>:
     a84:	1f 93       	push	r17
     a86:	dc 01       	movw	r26, r24
     a88:	fb 01       	movw	r30, r22
     a8a:	9c 91       	ld	r25, X
     a8c:	92 30       	cpi	r25, 0x02	; 2
     a8e:	08 f4       	brcc	.+2      	; 0xa92 <__fpcmp_parts_f+0xe>
     a90:	47 c0       	rjmp	.+142    	; 0xb20 <__fpcmp_parts_f+0x9c>
     a92:	80 81       	ld	r24, Z
     a94:	82 30       	cpi	r24, 0x02	; 2
     a96:	08 f4       	brcc	.+2      	; 0xa9a <__fpcmp_parts_f+0x16>
     a98:	43 c0       	rjmp	.+134    	; 0xb20 <__fpcmp_parts_f+0x9c>
     a9a:	94 30       	cpi	r25, 0x04	; 4
     a9c:	51 f4       	brne	.+20     	; 0xab2 <__fpcmp_parts_f+0x2e>
     a9e:	11 96       	adiw	r26, 0x01	; 1
     aa0:	1c 91       	ld	r17, X
     aa2:	84 30       	cpi	r24, 0x04	; 4
     aa4:	99 f5       	brne	.+102    	; 0xb0c <__fpcmp_parts_f+0x88>
     aa6:	81 81       	ldd	r24, Z+1	; 0x01
     aa8:	68 2f       	mov	r22, r24
     aaa:	70 e0       	ldi	r23, 0x00	; 0
     aac:	61 1b       	sub	r22, r17
     aae:	71 09       	sbc	r23, r1
     ab0:	3f c0       	rjmp	.+126    	; 0xb30 <__fpcmp_parts_f+0xac>
     ab2:	84 30       	cpi	r24, 0x04	; 4
     ab4:	21 f0       	breq	.+8      	; 0xabe <__fpcmp_parts_f+0x3a>
     ab6:	92 30       	cpi	r25, 0x02	; 2
     ab8:	31 f4       	brne	.+12     	; 0xac6 <__fpcmp_parts_f+0x42>
     aba:	82 30       	cpi	r24, 0x02	; 2
     abc:	b9 f1       	breq	.+110    	; 0xb2c <__fpcmp_parts_f+0xa8>
     abe:	81 81       	ldd	r24, Z+1	; 0x01
     ac0:	88 23       	and	r24, r24
     ac2:	89 f1       	breq	.+98     	; 0xb26 <__fpcmp_parts_f+0xa2>
     ac4:	2d c0       	rjmp	.+90     	; 0xb20 <__fpcmp_parts_f+0x9c>
     ac6:	11 96       	adiw	r26, 0x01	; 1
     ac8:	1c 91       	ld	r17, X
     aca:	11 97       	sbiw	r26, 0x01	; 1
     acc:	82 30       	cpi	r24, 0x02	; 2
     ace:	f1 f0       	breq	.+60     	; 0xb0c <__fpcmp_parts_f+0x88>
     ad0:	81 81       	ldd	r24, Z+1	; 0x01
     ad2:	18 17       	cp	r17, r24
     ad4:	d9 f4       	brne	.+54     	; 0xb0c <__fpcmp_parts_f+0x88>
     ad6:	12 96       	adiw	r26, 0x02	; 2
     ad8:	2d 91       	ld	r18, X+
     ada:	3c 91       	ld	r19, X
     adc:	13 97       	sbiw	r26, 0x03	; 3
     ade:	82 81       	ldd	r24, Z+2	; 0x02
     ae0:	93 81       	ldd	r25, Z+3	; 0x03
     ae2:	82 17       	cp	r24, r18
     ae4:	93 07       	cpc	r25, r19
     ae6:	94 f0       	brlt	.+36     	; 0xb0c <__fpcmp_parts_f+0x88>
     ae8:	28 17       	cp	r18, r24
     aea:	39 07       	cpc	r19, r25
     aec:	bc f0       	brlt	.+46     	; 0xb1c <__fpcmp_parts_f+0x98>
     aee:	14 96       	adiw	r26, 0x04	; 4
     af0:	8d 91       	ld	r24, X+
     af2:	9d 91       	ld	r25, X+
     af4:	0d 90       	ld	r0, X+
     af6:	bc 91       	ld	r27, X
     af8:	a0 2d       	mov	r26, r0
     afa:	24 81       	ldd	r18, Z+4	; 0x04
     afc:	35 81       	ldd	r19, Z+5	; 0x05
     afe:	46 81       	ldd	r20, Z+6	; 0x06
     b00:	57 81       	ldd	r21, Z+7	; 0x07
     b02:	28 17       	cp	r18, r24
     b04:	39 07       	cpc	r19, r25
     b06:	4a 07       	cpc	r20, r26
     b08:	5b 07       	cpc	r21, r27
     b0a:	18 f4       	brcc	.+6      	; 0xb12 <__fpcmp_parts_f+0x8e>
     b0c:	11 23       	and	r17, r17
     b0e:	41 f0       	breq	.+16     	; 0xb20 <__fpcmp_parts_f+0x9c>
     b10:	0a c0       	rjmp	.+20     	; 0xb26 <__fpcmp_parts_f+0xa2>
     b12:	82 17       	cp	r24, r18
     b14:	93 07       	cpc	r25, r19
     b16:	a4 07       	cpc	r26, r20
     b18:	b5 07       	cpc	r27, r21
     b1a:	40 f4       	brcc	.+16     	; 0xb2c <__fpcmp_parts_f+0xa8>
     b1c:	11 23       	and	r17, r17
     b1e:	19 f0       	breq	.+6      	; 0xb26 <__fpcmp_parts_f+0xa2>
     b20:	61 e0       	ldi	r22, 0x01	; 1
     b22:	70 e0       	ldi	r23, 0x00	; 0
     b24:	05 c0       	rjmp	.+10     	; 0xb30 <__fpcmp_parts_f+0xac>
     b26:	6f ef       	ldi	r22, 0xFF	; 255
     b28:	7f ef       	ldi	r23, 0xFF	; 255
     b2a:	02 c0       	rjmp	.+4      	; 0xb30 <__fpcmp_parts_f+0xac>
     b2c:	60 e0       	ldi	r22, 0x00	; 0
     b2e:	70 e0       	ldi	r23, 0x00	; 0
     b30:	cb 01       	movw	r24, r22
     b32:	1f 91       	pop	r17
     b34:	08 95       	ret

00000b36 <MCU_vEnableInterrupt>:
*//*************************************************************************/

#include"MCU_Interface.h"

void MCU_vEnableInterrupt(void)
{
     b36:	df 93       	push	r29
     b38:	cf 93       	push	r28
     b3a:	cd b7       	in	r28, 0x3d	; 61
     b3c:	de b7       	in	r29, 0x3e	; 62
	SET_BIT(SREG_REG,7);
     b3e:	af e5       	ldi	r26, 0x5F	; 95
     b40:	b0 e0       	ldi	r27, 0x00	; 0
     b42:	ef e5       	ldi	r30, 0x5F	; 95
     b44:	f0 e0       	ldi	r31, 0x00	; 0
     b46:	80 81       	ld	r24, Z
     b48:	80 68       	ori	r24, 0x80	; 128
     b4a:	8c 93       	st	X, r24

}
     b4c:	cf 91       	pop	r28
     b4e:	df 91       	pop	r29
     b50:	08 95       	ret

00000b52 <EXTI_vINIT>:
#include"EXTI_Interface.h"



void EXTI_vINIT(Uchar8_t Copy_Uchar8_tExtiNumber ,Uchar8_t Copy_Uchar8_tExtiSenceControl)
{
     b52:	df 93       	push	r29
     b54:	cf 93       	push	r28
     b56:	00 d0       	rcall	.+0      	; 0xb58 <EXTI_vINIT+0x6>
     b58:	00 d0       	rcall	.+0      	; 0xb5a <EXTI_vINIT+0x8>
     b5a:	cd b7       	in	r28, 0x3d	; 61
     b5c:	de b7       	in	r29, 0x3e	; 62
     b5e:	89 83       	std	Y+1, r24	; 0x01
     b60:	6a 83       	std	Y+2, r22	; 0x02
	switch(Copy_Uchar8_tExtiNumber)
     b62:	89 81       	ldd	r24, Y+1	; 0x01
     b64:	28 2f       	mov	r18, r24
     b66:	30 e0       	ldi	r19, 0x00	; 0
     b68:	3c 83       	std	Y+4, r19	; 0x04
     b6a:	2b 83       	std	Y+3, r18	; 0x03
     b6c:	8b 81       	ldd	r24, Y+3	; 0x03
     b6e:	9c 81       	ldd	r25, Y+4	; 0x04
     b70:	00 97       	sbiw	r24, 0x00	; 0
     b72:	31 f0       	breq	.+12     	; 0xb80 <EXTI_vINIT+0x2e>
     b74:	2b 81       	ldd	r18, Y+3	; 0x03
     b76:	3c 81       	ldd	r19, Y+4	; 0x04
     b78:	21 30       	cpi	r18, 0x01	; 1
     b7a:	31 05       	cpc	r19, r1
     b7c:	b9 f0       	breq	.+46     	; 0xbac <EXTI_vINIT+0x5a>
     b7e:	2b c0       	rjmp	.+86     	; 0xbd6 <EXTI_vINIT+0x84>
	{
		case 0:
		{
			#if Copy_Uchar8_tExtiSenceControl == EXTI_LOW_ACTIVATION
				CLEAR_BIT(MCUCR_REG,0);
     b80:	a5 e5       	ldi	r26, 0x55	; 85
     b82:	b0 e0       	ldi	r27, 0x00	; 0
     b84:	e5 e5       	ldi	r30, 0x55	; 85
     b86:	f0 e0       	ldi	r31, 0x00	; 0
     b88:	80 81       	ld	r24, Z
     b8a:	8e 7f       	andi	r24, 0xFE	; 254
     b8c:	8c 93       	st	X, r24
				CLEAR_BIT(MCUCR_REG,1);
     b8e:	a5 e5       	ldi	r26, 0x55	; 85
     b90:	b0 e0       	ldi	r27, 0x00	; 0
     b92:	e5 e5       	ldi	r30, 0x55	; 85
     b94:	f0 e0       	ldi	r31, 0x00	; 0
     b96:	80 81       	ld	r24, Z
     b98:	8d 7f       	andi	r24, 0xFD	; 253
     b9a:	8c 93       	st	X, r24
			#elif Copy_Uchar8_tExtiSenceControl == EXTI_RISAING_EDGE_ACTIVATION
				SET_BIT(MCUCR_REG,0);
				SET_BIT(MCUCR_REG,1);
			#error"Wrong Sence Control"
			#endif
				SET_BIT(GICR_REG,6);
     b9c:	ab e5       	ldi	r26, 0x5B	; 91
     b9e:	b0 e0       	ldi	r27, 0x00	; 0
     ba0:	eb e5       	ldi	r30, 0x5B	; 91
     ba2:	f0 e0       	ldi	r31, 0x00	; 0
     ba4:	80 81       	ld	r24, Z
     ba6:	80 64       	ori	r24, 0x40	; 64
     ba8:	8c 93       	st	X, r24
     baa:	15 c0       	rjmp	.+42     	; 0xbd6 <EXTI_vINIT+0x84>
			break;
		}
		case 1:
				{
					#if Copy_Uchar8_tExtiSenceControl == EXTI_LOW_ACTIVATION
						CLEAR_BIT(MCUCR_REG,2);
     bac:	a5 e5       	ldi	r26, 0x55	; 85
     bae:	b0 e0       	ldi	r27, 0x00	; 0
     bb0:	e5 e5       	ldi	r30, 0x55	; 85
     bb2:	f0 e0       	ldi	r31, 0x00	; 0
     bb4:	80 81       	ld	r24, Z
     bb6:	8b 7f       	andi	r24, 0xFB	; 251
     bb8:	8c 93       	st	X, r24
						CLEAR_BIT(MCUCR_REG,3);
     bba:	a5 e5       	ldi	r26, 0x55	; 85
     bbc:	b0 e0       	ldi	r27, 0x00	; 0
     bbe:	e5 e5       	ldi	r30, 0x55	; 85
     bc0:	f0 e0       	ldi	r31, 0x00	; 0
     bc2:	80 81       	ld	r24, Z
     bc4:	87 7f       	andi	r24, 0xF7	; 247
     bc6:	8c 93       	st	X, r24
					#elif Copy_Uchar8_tExtiSenceControl == EXTI_RISAING_EDGE_ACTIVATION
						SET_BIT(MCUCR_REG,2);
						SET_BIT(MCUCR_REG,3);
					#error"Wrong Sence Control"
					#endif
						SET_BIT(GICR_REG,7);
     bc8:	ab e5       	ldi	r26, 0x5B	; 91
     bca:	b0 e0       	ldi	r27, 0x00	; 0
     bcc:	eb e5       	ldi	r30, 0x5B	; 91
     bce:	f0 e0       	ldi	r31, 0x00	; 0
     bd0:	80 81       	ld	r24, Z
     bd2:	80 68       	ori	r24, 0x80	; 128
     bd4:	8c 93       	st	X, r24
					break;
				}
	}
}
     bd6:	0f 90       	pop	r0
     bd8:	0f 90       	pop	r0
     bda:	0f 90       	pop	r0
     bdc:	0f 90       	pop	r0
     bde:	cf 91       	pop	r28
     be0:	df 91       	pop	r29
     be2:	08 95       	ret

00000be4 <EXTI_vDisableInterrurupt>:



void EXTI_vDisableInterrurupt(void)
{
     be4:	df 93       	push	r29
     be6:	cf 93       	push	r28
     be8:	cd b7       	in	r28, 0x3d	; 61
     bea:	de b7       	in	r29, 0x3e	; 62

}
     bec:	cf 91       	pop	r28
     bee:	df 91       	pop	r29
     bf0:	08 95       	ret

00000bf2 <DIO_vSetPinDir>:

#include"../DIO/DIO_Interface.h"


void DIO_vSetPinDir(Uchar8_t Copy_Uchar8_tPortName , Uchar8_t Copy_Uchar8_tPinNumber , Uchar8_t Copy_Uchar8_tPinDir)
{
     bf2:	df 93       	push	r29
     bf4:	cf 93       	push	r28
     bf6:	cd b7       	in	r28, 0x3d	; 61
     bf8:	de b7       	in	r29, 0x3e	; 62
     bfa:	27 97       	sbiw	r28, 0x07	; 7
     bfc:	0f b6       	in	r0, 0x3f	; 63
     bfe:	f8 94       	cli
     c00:	de bf       	out	0x3e, r29	; 62
     c02:	0f be       	out	0x3f, r0	; 63
     c04:	cd bf       	out	0x3d, r28	; 61
     c06:	89 83       	std	Y+1, r24	; 0x01
     c08:	6a 83       	std	Y+2, r22	; 0x02
     c0a:	4b 83       	std	Y+3, r20	; 0x03
	if(Copy_Uchar8_tPinDir == OUTPUT)
     c0c:	8b 81       	ldd	r24, Y+3	; 0x03
     c0e:	81 30       	cpi	r24, 0x01	; 1
     c10:	09 f0       	breq	.+2      	; 0xc14 <DIO_vSetPinDir+0x22>
     c12:	70 c0       	rjmp	.+224    	; 0xcf4 <DIO_vSetPinDir+0x102>
	{
		switch(Copy_Uchar8_tPortName)
     c14:	89 81       	ldd	r24, Y+1	; 0x01
     c16:	28 2f       	mov	r18, r24
     c18:	30 e0       	ldi	r19, 0x00	; 0
     c1a:	3f 83       	std	Y+7, r19	; 0x07
     c1c:	2e 83       	std	Y+6, r18	; 0x06
     c1e:	8e 81       	ldd	r24, Y+6	; 0x06
     c20:	9f 81       	ldd	r25, Y+7	; 0x07
     c22:	82 30       	cpi	r24, 0x02	; 2
     c24:	91 05       	cpc	r25, r1
     c26:	51 f1       	breq	.+84     	; 0xc7c <DIO_vSetPinDir+0x8a>
     c28:	2e 81       	ldd	r18, Y+6	; 0x06
     c2a:	3f 81       	ldd	r19, Y+7	; 0x07
     c2c:	23 30       	cpi	r18, 0x03	; 3
     c2e:	31 05       	cpc	r19, r1
     c30:	34 f4       	brge	.+12     	; 0xc3e <DIO_vSetPinDir+0x4c>
     c32:	8e 81       	ldd	r24, Y+6	; 0x06
     c34:	9f 81       	ldd	r25, Y+7	; 0x07
     c36:	81 30       	cpi	r24, 0x01	; 1
     c38:	91 05       	cpc	r25, r1
     c3a:	61 f0       	breq	.+24     	; 0xc54 <DIO_vSetPinDir+0x62>
     c3c:	d3 c0       	rjmp	.+422    	; 0xde4 <DIO_vSetPinDir+0x1f2>
     c3e:	2e 81       	ldd	r18, Y+6	; 0x06
     c40:	3f 81       	ldd	r19, Y+7	; 0x07
     c42:	23 30       	cpi	r18, 0x03	; 3
     c44:	31 05       	cpc	r19, r1
     c46:	71 f1       	breq	.+92     	; 0xca4 <DIO_vSetPinDir+0xb2>
     c48:	8e 81       	ldd	r24, Y+6	; 0x06
     c4a:	9f 81       	ldd	r25, Y+7	; 0x07
     c4c:	84 30       	cpi	r24, 0x04	; 4
     c4e:	91 05       	cpc	r25, r1
     c50:	e9 f1       	breq	.+122    	; 0xccc <DIO_vSetPinDir+0xda>
     c52:	c8 c0       	rjmp	.+400    	; 0xde4 <DIO_vSetPinDir+0x1f2>
		{
		case PORTA:
		{
			SET_BIT(DDRA_REG,Copy_Uchar8_tPinNumber);
     c54:	aa e3       	ldi	r26, 0x3A	; 58
     c56:	b0 e0       	ldi	r27, 0x00	; 0
     c58:	ea e3       	ldi	r30, 0x3A	; 58
     c5a:	f0 e0       	ldi	r31, 0x00	; 0
     c5c:	80 81       	ld	r24, Z
     c5e:	48 2f       	mov	r20, r24
     c60:	8a 81       	ldd	r24, Y+2	; 0x02
     c62:	28 2f       	mov	r18, r24
     c64:	30 e0       	ldi	r19, 0x00	; 0
     c66:	81 e0       	ldi	r24, 0x01	; 1
     c68:	90 e0       	ldi	r25, 0x00	; 0
     c6a:	02 2e       	mov	r0, r18
     c6c:	02 c0       	rjmp	.+4      	; 0xc72 <DIO_vSetPinDir+0x80>
     c6e:	88 0f       	add	r24, r24
     c70:	99 1f       	adc	r25, r25
     c72:	0a 94       	dec	r0
     c74:	e2 f7       	brpl	.-8      	; 0xc6e <DIO_vSetPinDir+0x7c>
     c76:	84 2b       	or	r24, r20
     c78:	8c 93       	st	X, r24
     c7a:	b4 c0       	rjmp	.+360    	; 0xde4 <DIO_vSetPinDir+0x1f2>
			break;
		}
		case PORTB:
		{
			SET_BIT(DDRB_REG,Copy_Uchar8_tPinNumber);
     c7c:	a7 e3       	ldi	r26, 0x37	; 55
     c7e:	b0 e0       	ldi	r27, 0x00	; 0
     c80:	e7 e3       	ldi	r30, 0x37	; 55
     c82:	f0 e0       	ldi	r31, 0x00	; 0
     c84:	80 81       	ld	r24, Z
     c86:	48 2f       	mov	r20, r24
     c88:	8a 81       	ldd	r24, Y+2	; 0x02
     c8a:	28 2f       	mov	r18, r24
     c8c:	30 e0       	ldi	r19, 0x00	; 0
     c8e:	81 e0       	ldi	r24, 0x01	; 1
     c90:	90 e0       	ldi	r25, 0x00	; 0
     c92:	02 2e       	mov	r0, r18
     c94:	02 c0       	rjmp	.+4      	; 0xc9a <DIO_vSetPinDir+0xa8>
     c96:	88 0f       	add	r24, r24
     c98:	99 1f       	adc	r25, r25
     c9a:	0a 94       	dec	r0
     c9c:	e2 f7       	brpl	.-8      	; 0xc96 <DIO_vSetPinDir+0xa4>
     c9e:	84 2b       	or	r24, r20
     ca0:	8c 93       	st	X, r24
     ca2:	a0 c0       	rjmp	.+320    	; 0xde4 <DIO_vSetPinDir+0x1f2>
			break;
		}
		case PORTC:
		{
			SET_BIT(DDRC_REG,Copy_Uchar8_tPinNumber);
     ca4:	a4 e3       	ldi	r26, 0x34	; 52
     ca6:	b0 e0       	ldi	r27, 0x00	; 0
     ca8:	e4 e3       	ldi	r30, 0x34	; 52
     caa:	f0 e0       	ldi	r31, 0x00	; 0
     cac:	80 81       	ld	r24, Z
     cae:	48 2f       	mov	r20, r24
     cb0:	8a 81       	ldd	r24, Y+2	; 0x02
     cb2:	28 2f       	mov	r18, r24
     cb4:	30 e0       	ldi	r19, 0x00	; 0
     cb6:	81 e0       	ldi	r24, 0x01	; 1
     cb8:	90 e0       	ldi	r25, 0x00	; 0
     cba:	02 2e       	mov	r0, r18
     cbc:	02 c0       	rjmp	.+4      	; 0xcc2 <DIO_vSetPinDir+0xd0>
     cbe:	88 0f       	add	r24, r24
     cc0:	99 1f       	adc	r25, r25
     cc2:	0a 94       	dec	r0
     cc4:	e2 f7       	brpl	.-8      	; 0xcbe <DIO_vSetPinDir+0xcc>
     cc6:	84 2b       	or	r24, r20
     cc8:	8c 93       	st	X, r24
     cca:	8c c0       	rjmp	.+280    	; 0xde4 <DIO_vSetPinDir+0x1f2>
			break;
		}
		case PORTD:
		{
			SET_BIT(DDRD_REG,Copy_Uchar8_tPinNumber);
     ccc:	a1 e3       	ldi	r26, 0x31	; 49
     cce:	b0 e0       	ldi	r27, 0x00	; 0
     cd0:	e1 e3       	ldi	r30, 0x31	; 49
     cd2:	f0 e0       	ldi	r31, 0x00	; 0
     cd4:	80 81       	ld	r24, Z
     cd6:	48 2f       	mov	r20, r24
     cd8:	8a 81       	ldd	r24, Y+2	; 0x02
     cda:	28 2f       	mov	r18, r24
     cdc:	30 e0       	ldi	r19, 0x00	; 0
     cde:	81 e0       	ldi	r24, 0x01	; 1
     ce0:	90 e0       	ldi	r25, 0x00	; 0
     ce2:	02 2e       	mov	r0, r18
     ce4:	02 c0       	rjmp	.+4      	; 0xcea <DIO_vSetPinDir+0xf8>
     ce6:	88 0f       	add	r24, r24
     ce8:	99 1f       	adc	r25, r25
     cea:	0a 94       	dec	r0
     cec:	e2 f7       	brpl	.-8      	; 0xce6 <DIO_vSetPinDir+0xf4>
     cee:	84 2b       	or	r24, r20
     cf0:	8c 93       	st	X, r24
     cf2:	78 c0       	rjmp	.+240    	; 0xde4 <DIO_vSetPinDir+0x1f2>
			break;
		}
		}
	}
	else if(Copy_Uchar8_tPinDir == INPUT)
     cf4:	8b 81       	ldd	r24, Y+3	; 0x03
     cf6:	88 23       	and	r24, r24
     cf8:	09 f0       	breq	.+2      	; 0xcfc <DIO_vSetPinDir+0x10a>
     cfa:	74 c0       	rjmp	.+232    	; 0xde4 <DIO_vSetPinDir+0x1f2>
	{
		switch(Copy_Uchar8_tPortName)
     cfc:	89 81       	ldd	r24, Y+1	; 0x01
     cfe:	28 2f       	mov	r18, r24
     d00:	30 e0       	ldi	r19, 0x00	; 0
     d02:	3d 83       	std	Y+5, r19	; 0x05
     d04:	2c 83       	std	Y+4, r18	; 0x04
     d06:	8c 81       	ldd	r24, Y+4	; 0x04
     d08:	9d 81       	ldd	r25, Y+5	; 0x05
     d0a:	82 30       	cpi	r24, 0x02	; 2
     d0c:	91 05       	cpc	r25, r1
     d0e:	61 f1       	breq	.+88     	; 0xd68 <DIO_vSetPinDir+0x176>
     d10:	2c 81       	ldd	r18, Y+4	; 0x04
     d12:	3d 81       	ldd	r19, Y+5	; 0x05
     d14:	23 30       	cpi	r18, 0x03	; 3
     d16:	31 05       	cpc	r19, r1
     d18:	34 f4       	brge	.+12     	; 0xd26 <DIO_vSetPinDir+0x134>
     d1a:	8c 81       	ldd	r24, Y+4	; 0x04
     d1c:	9d 81       	ldd	r25, Y+5	; 0x05
     d1e:	81 30       	cpi	r24, 0x01	; 1
     d20:	91 05       	cpc	r25, r1
     d22:	69 f0       	breq	.+26     	; 0xd3e <DIO_vSetPinDir+0x14c>
     d24:	5f c0       	rjmp	.+190    	; 0xde4 <DIO_vSetPinDir+0x1f2>
     d26:	2c 81       	ldd	r18, Y+4	; 0x04
     d28:	3d 81       	ldd	r19, Y+5	; 0x05
     d2a:	23 30       	cpi	r18, 0x03	; 3
     d2c:	31 05       	cpc	r19, r1
     d2e:	89 f1       	breq	.+98     	; 0xd92 <DIO_vSetPinDir+0x1a0>
     d30:	8c 81       	ldd	r24, Y+4	; 0x04
     d32:	9d 81       	ldd	r25, Y+5	; 0x05
     d34:	84 30       	cpi	r24, 0x04	; 4
     d36:	91 05       	cpc	r25, r1
     d38:	09 f4       	brne	.+2      	; 0xd3c <DIO_vSetPinDir+0x14a>
     d3a:	40 c0       	rjmp	.+128    	; 0xdbc <DIO_vSetPinDir+0x1ca>
     d3c:	53 c0       	rjmp	.+166    	; 0xde4 <DIO_vSetPinDir+0x1f2>
		{
		case PORTA:
		{
			CLEAR_BIT(DDRA_REG,Copy_Uchar8_tPinNumber);
     d3e:	aa e3       	ldi	r26, 0x3A	; 58
     d40:	b0 e0       	ldi	r27, 0x00	; 0
     d42:	ea e3       	ldi	r30, 0x3A	; 58
     d44:	f0 e0       	ldi	r31, 0x00	; 0
     d46:	80 81       	ld	r24, Z
     d48:	48 2f       	mov	r20, r24
     d4a:	8a 81       	ldd	r24, Y+2	; 0x02
     d4c:	28 2f       	mov	r18, r24
     d4e:	30 e0       	ldi	r19, 0x00	; 0
     d50:	81 e0       	ldi	r24, 0x01	; 1
     d52:	90 e0       	ldi	r25, 0x00	; 0
     d54:	02 2e       	mov	r0, r18
     d56:	02 c0       	rjmp	.+4      	; 0xd5c <DIO_vSetPinDir+0x16a>
     d58:	88 0f       	add	r24, r24
     d5a:	99 1f       	adc	r25, r25
     d5c:	0a 94       	dec	r0
     d5e:	e2 f7       	brpl	.-8      	; 0xd58 <DIO_vSetPinDir+0x166>
     d60:	80 95       	com	r24
     d62:	84 23       	and	r24, r20
     d64:	8c 93       	st	X, r24
     d66:	3e c0       	rjmp	.+124    	; 0xde4 <DIO_vSetPinDir+0x1f2>
			break;
		}
		case PORTB:
		{
			CLEAR_BIT(DDRB_REG,Copy_Uchar8_tPinNumber);
     d68:	a7 e3       	ldi	r26, 0x37	; 55
     d6a:	b0 e0       	ldi	r27, 0x00	; 0
     d6c:	e7 e3       	ldi	r30, 0x37	; 55
     d6e:	f0 e0       	ldi	r31, 0x00	; 0
     d70:	80 81       	ld	r24, Z
     d72:	48 2f       	mov	r20, r24
     d74:	8a 81       	ldd	r24, Y+2	; 0x02
     d76:	28 2f       	mov	r18, r24
     d78:	30 e0       	ldi	r19, 0x00	; 0
     d7a:	81 e0       	ldi	r24, 0x01	; 1
     d7c:	90 e0       	ldi	r25, 0x00	; 0
     d7e:	02 2e       	mov	r0, r18
     d80:	02 c0       	rjmp	.+4      	; 0xd86 <DIO_vSetPinDir+0x194>
     d82:	88 0f       	add	r24, r24
     d84:	99 1f       	adc	r25, r25
     d86:	0a 94       	dec	r0
     d88:	e2 f7       	brpl	.-8      	; 0xd82 <DIO_vSetPinDir+0x190>
     d8a:	80 95       	com	r24
     d8c:	84 23       	and	r24, r20
     d8e:	8c 93       	st	X, r24
     d90:	29 c0       	rjmp	.+82     	; 0xde4 <DIO_vSetPinDir+0x1f2>
			break;
		}
		case PORTC:
		{
			CLEAR_BIT(DDRC_REG,Copy_Uchar8_tPinNumber);
     d92:	a4 e3       	ldi	r26, 0x34	; 52
     d94:	b0 e0       	ldi	r27, 0x00	; 0
     d96:	e4 e3       	ldi	r30, 0x34	; 52
     d98:	f0 e0       	ldi	r31, 0x00	; 0
     d9a:	80 81       	ld	r24, Z
     d9c:	48 2f       	mov	r20, r24
     d9e:	8a 81       	ldd	r24, Y+2	; 0x02
     da0:	28 2f       	mov	r18, r24
     da2:	30 e0       	ldi	r19, 0x00	; 0
     da4:	81 e0       	ldi	r24, 0x01	; 1
     da6:	90 e0       	ldi	r25, 0x00	; 0
     da8:	02 2e       	mov	r0, r18
     daa:	02 c0       	rjmp	.+4      	; 0xdb0 <DIO_vSetPinDir+0x1be>
     dac:	88 0f       	add	r24, r24
     dae:	99 1f       	adc	r25, r25
     db0:	0a 94       	dec	r0
     db2:	e2 f7       	brpl	.-8      	; 0xdac <DIO_vSetPinDir+0x1ba>
     db4:	80 95       	com	r24
     db6:	84 23       	and	r24, r20
     db8:	8c 93       	st	X, r24
     dba:	14 c0       	rjmp	.+40     	; 0xde4 <DIO_vSetPinDir+0x1f2>
			break;
		}
		case PORTD:
		{
			CLEAR_BIT(DDRD_REG,Copy_Uchar8_tPinNumber);
     dbc:	a1 e3       	ldi	r26, 0x31	; 49
     dbe:	b0 e0       	ldi	r27, 0x00	; 0
     dc0:	e1 e3       	ldi	r30, 0x31	; 49
     dc2:	f0 e0       	ldi	r31, 0x00	; 0
     dc4:	80 81       	ld	r24, Z
     dc6:	48 2f       	mov	r20, r24
     dc8:	8a 81       	ldd	r24, Y+2	; 0x02
     dca:	28 2f       	mov	r18, r24
     dcc:	30 e0       	ldi	r19, 0x00	; 0
     dce:	81 e0       	ldi	r24, 0x01	; 1
     dd0:	90 e0       	ldi	r25, 0x00	; 0
     dd2:	02 2e       	mov	r0, r18
     dd4:	02 c0       	rjmp	.+4      	; 0xdda <DIO_vSetPinDir+0x1e8>
     dd6:	88 0f       	add	r24, r24
     dd8:	99 1f       	adc	r25, r25
     dda:	0a 94       	dec	r0
     ddc:	e2 f7       	brpl	.-8      	; 0xdd6 <DIO_vSetPinDir+0x1e4>
     dde:	80 95       	com	r24
     de0:	84 23       	and	r24, r20
     de2:	8c 93       	st	X, r24
			break;
		}
		}
	}
}
     de4:	27 96       	adiw	r28, 0x07	; 7
     de6:	0f b6       	in	r0, 0x3f	; 63
     de8:	f8 94       	cli
     dea:	de bf       	out	0x3e, r29	; 62
     dec:	0f be       	out	0x3f, r0	; 63
     dee:	cd bf       	out	0x3d, r28	; 61
     df0:	cf 91       	pop	r28
     df2:	df 91       	pop	r29
     df4:	08 95       	ret

00000df6 <DIO_vSetPinVal>:


void DIO_vSetPinVal(Uchar8_t Copy_Uchar8_tPortName , Uchar8_t Copy_Uchar8_tPinNumber , Uchar8_t Copy_Uchar8_tPinVal)
{
     df6:	df 93       	push	r29
     df8:	cf 93       	push	r28
     dfa:	cd b7       	in	r28, 0x3d	; 61
     dfc:	de b7       	in	r29, 0x3e	; 62
     dfe:	27 97       	sbiw	r28, 0x07	; 7
     e00:	0f b6       	in	r0, 0x3f	; 63
     e02:	f8 94       	cli
     e04:	de bf       	out	0x3e, r29	; 62
     e06:	0f be       	out	0x3f, r0	; 63
     e08:	cd bf       	out	0x3d, r28	; 61
     e0a:	89 83       	std	Y+1, r24	; 0x01
     e0c:	6a 83       	std	Y+2, r22	; 0x02
     e0e:	4b 83       	std	Y+3, r20	; 0x03
	if(Copy_Uchar8_tPinVal == HIGH)
     e10:	8b 81       	ldd	r24, Y+3	; 0x03
     e12:	81 30       	cpi	r24, 0x01	; 1
     e14:	09 f0       	breq	.+2      	; 0xe18 <DIO_vSetPinVal+0x22>
     e16:	70 c0       	rjmp	.+224    	; 0xef8 <DIO_vSetPinVal+0x102>
	{
		switch(Copy_Uchar8_tPortName)
     e18:	89 81       	ldd	r24, Y+1	; 0x01
     e1a:	28 2f       	mov	r18, r24
     e1c:	30 e0       	ldi	r19, 0x00	; 0
     e1e:	3f 83       	std	Y+7, r19	; 0x07
     e20:	2e 83       	std	Y+6, r18	; 0x06
     e22:	8e 81       	ldd	r24, Y+6	; 0x06
     e24:	9f 81       	ldd	r25, Y+7	; 0x07
     e26:	82 30       	cpi	r24, 0x02	; 2
     e28:	91 05       	cpc	r25, r1
     e2a:	51 f1       	breq	.+84     	; 0xe80 <DIO_vSetPinVal+0x8a>
     e2c:	2e 81       	ldd	r18, Y+6	; 0x06
     e2e:	3f 81       	ldd	r19, Y+7	; 0x07
     e30:	23 30       	cpi	r18, 0x03	; 3
     e32:	31 05       	cpc	r19, r1
     e34:	34 f4       	brge	.+12     	; 0xe42 <DIO_vSetPinVal+0x4c>
     e36:	8e 81       	ldd	r24, Y+6	; 0x06
     e38:	9f 81       	ldd	r25, Y+7	; 0x07
     e3a:	81 30       	cpi	r24, 0x01	; 1
     e3c:	91 05       	cpc	r25, r1
     e3e:	61 f0       	breq	.+24     	; 0xe58 <DIO_vSetPinVal+0x62>
     e40:	d3 c0       	rjmp	.+422    	; 0xfe8 <DIO_vSetPinVal+0x1f2>
     e42:	2e 81       	ldd	r18, Y+6	; 0x06
     e44:	3f 81       	ldd	r19, Y+7	; 0x07
     e46:	23 30       	cpi	r18, 0x03	; 3
     e48:	31 05       	cpc	r19, r1
     e4a:	71 f1       	breq	.+92     	; 0xea8 <DIO_vSetPinVal+0xb2>
     e4c:	8e 81       	ldd	r24, Y+6	; 0x06
     e4e:	9f 81       	ldd	r25, Y+7	; 0x07
     e50:	84 30       	cpi	r24, 0x04	; 4
     e52:	91 05       	cpc	r25, r1
     e54:	e9 f1       	breq	.+122    	; 0xed0 <DIO_vSetPinVal+0xda>
     e56:	c8 c0       	rjmp	.+400    	; 0xfe8 <DIO_vSetPinVal+0x1f2>
		{
		case PORTA:
		{
			SET_BIT(PORTA_REG,Copy_Uchar8_tPinNumber);
     e58:	ab e3       	ldi	r26, 0x3B	; 59
     e5a:	b0 e0       	ldi	r27, 0x00	; 0
     e5c:	eb e3       	ldi	r30, 0x3B	; 59
     e5e:	f0 e0       	ldi	r31, 0x00	; 0
     e60:	80 81       	ld	r24, Z
     e62:	48 2f       	mov	r20, r24
     e64:	8a 81       	ldd	r24, Y+2	; 0x02
     e66:	28 2f       	mov	r18, r24
     e68:	30 e0       	ldi	r19, 0x00	; 0
     e6a:	81 e0       	ldi	r24, 0x01	; 1
     e6c:	90 e0       	ldi	r25, 0x00	; 0
     e6e:	02 2e       	mov	r0, r18
     e70:	02 c0       	rjmp	.+4      	; 0xe76 <DIO_vSetPinVal+0x80>
     e72:	88 0f       	add	r24, r24
     e74:	99 1f       	adc	r25, r25
     e76:	0a 94       	dec	r0
     e78:	e2 f7       	brpl	.-8      	; 0xe72 <DIO_vSetPinVal+0x7c>
     e7a:	84 2b       	or	r24, r20
     e7c:	8c 93       	st	X, r24
     e7e:	b4 c0       	rjmp	.+360    	; 0xfe8 <DIO_vSetPinVal+0x1f2>
			break;
		}
		case PORTB:
		{
			SET_BIT(PORTB_REG,Copy_Uchar8_tPinNumber);
     e80:	a8 e3       	ldi	r26, 0x38	; 56
     e82:	b0 e0       	ldi	r27, 0x00	; 0
     e84:	e8 e3       	ldi	r30, 0x38	; 56
     e86:	f0 e0       	ldi	r31, 0x00	; 0
     e88:	80 81       	ld	r24, Z
     e8a:	48 2f       	mov	r20, r24
     e8c:	8a 81       	ldd	r24, Y+2	; 0x02
     e8e:	28 2f       	mov	r18, r24
     e90:	30 e0       	ldi	r19, 0x00	; 0
     e92:	81 e0       	ldi	r24, 0x01	; 1
     e94:	90 e0       	ldi	r25, 0x00	; 0
     e96:	02 2e       	mov	r0, r18
     e98:	02 c0       	rjmp	.+4      	; 0xe9e <DIO_vSetPinVal+0xa8>
     e9a:	88 0f       	add	r24, r24
     e9c:	99 1f       	adc	r25, r25
     e9e:	0a 94       	dec	r0
     ea0:	e2 f7       	brpl	.-8      	; 0xe9a <DIO_vSetPinVal+0xa4>
     ea2:	84 2b       	or	r24, r20
     ea4:	8c 93       	st	X, r24
     ea6:	a0 c0       	rjmp	.+320    	; 0xfe8 <DIO_vSetPinVal+0x1f2>
			break;
		}
		case PORTC:
		{
			SET_BIT(PORTC_REG,Copy_Uchar8_tPinNumber);
     ea8:	a5 e3       	ldi	r26, 0x35	; 53
     eaa:	b0 e0       	ldi	r27, 0x00	; 0
     eac:	e5 e3       	ldi	r30, 0x35	; 53
     eae:	f0 e0       	ldi	r31, 0x00	; 0
     eb0:	80 81       	ld	r24, Z
     eb2:	48 2f       	mov	r20, r24
     eb4:	8a 81       	ldd	r24, Y+2	; 0x02
     eb6:	28 2f       	mov	r18, r24
     eb8:	30 e0       	ldi	r19, 0x00	; 0
     eba:	81 e0       	ldi	r24, 0x01	; 1
     ebc:	90 e0       	ldi	r25, 0x00	; 0
     ebe:	02 2e       	mov	r0, r18
     ec0:	02 c0       	rjmp	.+4      	; 0xec6 <DIO_vSetPinVal+0xd0>
     ec2:	88 0f       	add	r24, r24
     ec4:	99 1f       	adc	r25, r25
     ec6:	0a 94       	dec	r0
     ec8:	e2 f7       	brpl	.-8      	; 0xec2 <DIO_vSetPinVal+0xcc>
     eca:	84 2b       	or	r24, r20
     ecc:	8c 93       	st	X, r24
     ece:	8c c0       	rjmp	.+280    	; 0xfe8 <DIO_vSetPinVal+0x1f2>
			break;
		}
		case PORTD:
		{
			SET_BIT(PORTD_REG,Copy_Uchar8_tPinNumber);
     ed0:	a2 e3       	ldi	r26, 0x32	; 50
     ed2:	b0 e0       	ldi	r27, 0x00	; 0
     ed4:	e2 e3       	ldi	r30, 0x32	; 50
     ed6:	f0 e0       	ldi	r31, 0x00	; 0
     ed8:	80 81       	ld	r24, Z
     eda:	48 2f       	mov	r20, r24
     edc:	8a 81       	ldd	r24, Y+2	; 0x02
     ede:	28 2f       	mov	r18, r24
     ee0:	30 e0       	ldi	r19, 0x00	; 0
     ee2:	81 e0       	ldi	r24, 0x01	; 1
     ee4:	90 e0       	ldi	r25, 0x00	; 0
     ee6:	02 2e       	mov	r0, r18
     ee8:	02 c0       	rjmp	.+4      	; 0xeee <DIO_vSetPinVal+0xf8>
     eea:	88 0f       	add	r24, r24
     eec:	99 1f       	adc	r25, r25
     eee:	0a 94       	dec	r0
     ef0:	e2 f7       	brpl	.-8      	; 0xeea <DIO_vSetPinVal+0xf4>
     ef2:	84 2b       	or	r24, r20
     ef4:	8c 93       	st	X, r24
     ef6:	78 c0       	rjmp	.+240    	; 0xfe8 <DIO_vSetPinVal+0x1f2>
			break;
		}
		}
	}
	else if(Copy_Uchar8_tPinVal == LOW)
     ef8:	8b 81       	ldd	r24, Y+3	; 0x03
     efa:	88 23       	and	r24, r24
     efc:	09 f0       	breq	.+2      	; 0xf00 <DIO_vSetPinVal+0x10a>
     efe:	74 c0       	rjmp	.+232    	; 0xfe8 <DIO_vSetPinVal+0x1f2>
	{
		switch(Copy_Uchar8_tPortName)
     f00:	89 81       	ldd	r24, Y+1	; 0x01
     f02:	28 2f       	mov	r18, r24
     f04:	30 e0       	ldi	r19, 0x00	; 0
     f06:	3d 83       	std	Y+5, r19	; 0x05
     f08:	2c 83       	std	Y+4, r18	; 0x04
     f0a:	8c 81       	ldd	r24, Y+4	; 0x04
     f0c:	9d 81       	ldd	r25, Y+5	; 0x05
     f0e:	82 30       	cpi	r24, 0x02	; 2
     f10:	91 05       	cpc	r25, r1
     f12:	61 f1       	breq	.+88     	; 0xf6c <DIO_vSetPinVal+0x176>
     f14:	2c 81       	ldd	r18, Y+4	; 0x04
     f16:	3d 81       	ldd	r19, Y+5	; 0x05
     f18:	23 30       	cpi	r18, 0x03	; 3
     f1a:	31 05       	cpc	r19, r1
     f1c:	34 f4       	brge	.+12     	; 0xf2a <DIO_vSetPinVal+0x134>
     f1e:	8c 81       	ldd	r24, Y+4	; 0x04
     f20:	9d 81       	ldd	r25, Y+5	; 0x05
     f22:	81 30       	cpi	r24, 0x01	; 1
     f24:	91 05       	cpc	r25, r1
     f26:	69 f0       	breq	.+26     	; 0xf42 <DIO_vSetPinVal+0x14c>
     f28:	5f c0       	rjmp	.+190    	; 0xfe8 <DIO_vSetPinVal+0x1f2>
     f2a:	2c 81       	ldd	r18, Y+4	; 0x04
     f2c:	3d 81       	ldd	r19, Y+5	; 0x05
     f2e:	23 30       	cpi	r18, 0x03	; 3
     f30:	31 05       	cpc	r19, r1
     f32:	89 f1       	breq	.+98     	; 0xf96 <DIO_vSetPinVal+0x1a0>
     f34:	8c 81       	ldd	r24, Y+4	; 0x04
     f36:	9d 81       	ldd	r25, Y+5	; 0x05
     f38:	84 30       	cpi	r24, 0x04	; 4
     f3a:	91 05       	cpc	r25, r1
     f3c:	09 f4       	brne	.+2      	; 0xf40 <DIO_vSetPinVal+0x14a>
     f3e:	40 c0       	rjmp	.+128    	; 0xfc0 <DIO_vSetPinVal+0x1ca>
     f40:	53 c0       	rjmp	.+166    	; 0xfe8 <DIO_vSetPinVal+0x1f2>
		{
		case PORTA:
		{
			CLEAR_BIT(PORTA_REG,Copy_Uchar8_tPinNumber);
     f42:	ab e3       	ldi	r26, 0x3B	; 59
     f44:	b0 e0       	ldi	r27, 0x00	; 0
     f46:	eb e3       	ldi	r30, 0x3B	; 59
     f48:	f0 e0       	ldi	r31, 0x00	; 0
     f4a:	80 81       	ld	r24, Z
     f4c:	48 2f       	mov	r20, r24
     f4e:	8a 81       	ldd	r24, Y+2	; 0x02
     f50:	28 2f       	mov	r18, r24
     f52:	30 e0       	ldi	r19, 0x00	; 0
     f54:	81 e0       	ldi	r24, 0x01	; 1
     f56:	90 e0       	ldi	r25, 0x00	; 0
     f58:	02 2e       	mov	r0, r18
     f5a:	02 c0       	rjmp	.+4      	; 0xf60 <DIO_vSetPinVal+0x16a>
     f5c:	88 0f       	add	r24, r24
     f5e:	99 1f       	adc	r25, r25
     f60:	0a 94       	dec	r0
     f62:	e2 f7       	brpl	.-8      	; 0xf5c <DIO_vSetPinVal+0x166>
     f64:	80 95       	com	r24
     f66:	84 23       	and	r24, r20
     f68:	8c 93       	st	X, r24
     f6a:	3e c0       	rjmp	.+124    	; 0xfe8 <DIO_vSetPinVal+0x1f2>
			break;
		}
		case PORTB:
		{
			CLEAR_BIT(PORTB_REG,Copy_Uchar8_tPinNumber);
     f6c:	a8 e3       	ldi	r26, 0x38	; 56
     f6e:	b0 e0       	ldi	r27, 0x00	; 0
     f70:	e8 e3       	ldi	r30, 0x38	; 56
     f72:	f0 e0       	ldi	r31, 0x00	; 0
     f74:	80 81       	ld	r24, Z
     f76:	48 2f       	mov	r20, r24
     f78:	8a 81       	ldd	r24, Y+2	; 0x02
     f7a:	28 2f       	mov	r18, r24
     f7c:	30 e0       	ldi	r19, 0x00	; 0
     f7e:	81 e0       	ldi	r24, 0x01	; 1
     f80:	90 e0       	ldi	r25, 0x00	; 0
     f82:	02 2e       	mov	r0, r18
     f84:	02 c0       	rjmp	.+4      	; 0xf8a <DIO_vSetPinVal+0x194>
     f86:	88 0f       	add	r24, r24
     f88:	99 1f       	adc	r25, r25
     f8a:	0a 94       	dec	r0
     f8c:	e2 f7       	brpl	.-8      	; 0xf86 <DIO_vSetPinVal+0x190>
     f8e:	80 95       	com	r24
     f90:	84 23       	and	r24, r20
     f92:	8c 93       	st	X, r24
     f94:	29 c0       	rjmp	.+82     	; 0xfe8 <DIO_vSetPinVal+0x1f2>
			break;
		}
		case PORTC:
		{
			CLEAR_BIT(PORTC_REG,Copy_Uchar8_tPinNumber);
     f96:	a5 e3       	ldi	r26, 0x35	; 53
     f98:	b0 e0       	ldi	r27, 0x00	; 0
     f9a:	e5 e3       	ldi	r30, 0x35	; 53
     f9c:	f0 e0       	ldi	r31, 0x00	; 0
     f9e:	80 81       	ld	r24, Z
     fa0:	48 2f       	mov	r20, r24
     fa2:	8a 81       	ldd	r24, Y+2	; 0x02
     fa4:	28 2f       	mov	r18, r24
     fa6:	30 e0       	ldi	r19, 0x00	; 0
     fa8:	81 e0       	ldi	r24, 0x01	; 1
     faa:	90 e0       	ldi	r25, 0x00	; 0
     fac:	02 2e       	mov	r0, r18
     fae:	02 c0       	rjmp	.+4      	; 0xfb4 <DIO_vSetPinVal+0x1be>
     fb0:	88 0f       	add	r24, r24
     fb2:	99 1f       	adc	r25, r25
     fb4:	0a 94       	dec	r0
     fb6:	e2 f7       	brpl	.-8      	; 0xfb0 <DIO_vSetPinVal+0x1ba>
     fb8:	80 95       	com	r24
     fba:	84 23       	and	r24, r20
     fbc:	8c 93       	st	X, r24
     fbe:	14 c0       	rjmp	.+40     	; 0xfe8 <DIO_vSetPinVal+0x1f2>
			break;
		}
		case PORTD:
		{
			CLEAR_BIT(PORTD_REG,Copy_Uchar8_tPinNumber);
     fc0:	a2 e3       	ldi	r26, 0x32	; 50
     fc2:	b0 e0       	ldi	r27, 0x00	; 0
     fc4:	e2 e3       	ldi	r30, 0x32	; 50
     fc6:	f0 e0       	ldi	r31, 0x00	; 0
     fc8:	80 81       	ld	r24, Z
     fca:	48 2f       	mov	r20, r24
     fcc:	8a 81       	ldd	r24, Y+2	; 0x02
     fce:	28 2f       	mov	r18, r24
     fd0:	30 e0       	ldi	r19, 0x00	; 0
     fd2:	81 e0       	ldi	r24, 0x01	; 1
     fd4:	90 e0       	ldi	r25, 0x00	; 0
     fd6:	02 2e       	mov	r0, r18
     fd8:	02 c0       	rjmp	.+4      	; 0xfde <DIO_vSetPinVal+0x1e8>
     fda:	88 0f       	add	r24, r24
     fdc:	99 1f       	adc	r25, r25
     fde:	0a 94       	dec	r0
     fe0:	e2 f7       	brpl	.-8      	; 0xfda <DIO_vSetPinVal+0x1e4>
     fe2:	80 95       	com	r24
     fe4:	84 23       	and	r24, r20
     fe6:	8c 93       	st	X, r24
			break;
		}
		}
	}
}
     fe8:	27 96       	adiw	r28, 0x07	; 7
     fea:	0f b6       	in	r0, 0x3f	; 63
     fec:	f8 94       	cli
     fee:	de bf       	out	0x3e, r29	; 62
     ff0:	0f be       	out	0x3f, r0	; 63
     ff2:	cd bf       	out	0x3d, r28	; 61
     ff4:	cf 91       	pop	r28
     ff6:	df 91       	pop	r29
     ff8:	08 95       	ret

00000ffa <DIO_Uchar8_tGetPinVal>:


Uchar8_t DIO_Uchar8_tGetPinVal(Uchar8_t Copy_Uchar8_tPortName , Uchar8_t Copy_Uchar8_tPinNumber)
{
     ffa:	df 93       	push	r29
     ffc:	cf 93       	push	r28
     ffe:	00 d0       	rcall	.+0      	; 0x1000 <DIO_Uchar8_tGetPinVal+0x6>
    1000:	00 d0       	rcall	.+0      	; 0x1002 <DIO_Uchar8_tGetPinVal+0x8>
    1002:	0f 92       	push	r0
    1004:	cd b7       	in	r28, 0x3d	; 61
    1006:	de b7       	in	r29, 0x3e	; 62
    1008:	8a 83       	std	Y+2, r24	; 0x02
    100a:	6b 83       	std	Y+3, r22	; 0x03
	Uchar8_t Local_Uchar8_tGetPinVal = 0;
    100c:	19 82       	std	Y+1, r1	; 0x01

	switch(Copy_Uchar8_tPortName)
    100e:	8a 81       	ldd	r24, Y+2	; 0x02
    1010:	28 2f       	mov	r18, r24
    1012:	30 e0       	ldi	r19, 0x00	; 0
    1014:	3d 83       	std	Y+5, r19	; 0x05
    1016:	2c 83       	std	Y+4, r18	; 0x04
    1018:	4c 81       	ldd	r20, Y+4	; 0x04
    101a:	5d 81       	ldd	r21, Y+5	; 0x05
    101c:	42 30       	cpi	r20, 0x02	; 2
    101e:	51 05       	cpc	r21, r1
    1020:	41 f1       	breq	.+80     	; 0x1072 <DIO_Uchar8_tGetPinVal+0x78>
    1022:	8c 81       	ldd	r24, Y+4	; 0x04
    1024:	9d 81       	ldd	r25, Y+5	; 0x05
    1026:	83 30       	cpi	r24, 0x03	; 3
    1028:	91 05       	cpc	r25, r1
    102a:	34 f4       	brge	.+12     	; 0x1038 <DIO_Uchar8_tGetPinVal+0x3e>
    102c:	2c 81       	ldd	r18, Y+4	; 0x04
    102e:	3d 81       	ldd	r19, Y+5	; 0x05
    1030:	21 30       	cpi	r18, 0x01	; 1
    1032:	31 05       	cpc	r19, r1
    1034:	61 f0       	breq	.+24     	; 0x104e <DIO_Uchar8_tGetPinVal+0x54>
    1036:	52 c0       	rjmp	.+164    	; 0x10dc <DIO_Uchar8_tGetPinVal+0xe2>
    1038:	4c 81       	ldd	r20, Y+4	; 0x04
    103a:	5d 81       	ldd	r21, Y+5	; 0x05
    103c:	43 30       	cpi	r20, 0x03	; 3
    103e:	51 05       	cpc	r21, r1
    1040:	51 f1       	breq	.+84     	; 0x1096 <DIO_Uchar8_tGetPinVal+0x9c>
    1042:	8c 81       	ldd	r24, Y+4	; 0x04
    1044:	9d 81       	ldd	r25, Y+5	; 0x05
    1046:	84 30       	cpi	r24, 0x04	; 4
    1048:	91 05       	cpc	r25, r1
    104a:	b9 f1       	breq	.+110    	; 0x10ba <DIO_Uchar8_tGetPinVal+0xc0>
    104c:	47 c0       	rjmp	.+142    	; 0x10dc <DIO_Uchar8_tGetPinVal+0xe2>
	{
	case PORTA:
	{
		Local_Uchar8_tGetPinVal = GET_BIT(PINA_REG,Copy_Uchar8_tPinNumber);
    104e:	e9 e3       	ldi	r30, 0x39	; 57
    1050:	f0 e0       	ldi	r31, 0x00	; 0
    1052:	80 81       	ld	r24, Z
    1054:	28 2f       	mov	r18, r24
    1056:	30 e0       	ldi	r19, 0x00	; 0
    1058:	8b 81       	ldd	r24, Y+3	; 0x03
    105a:	88 2f       	mov	r24, r24
    105c:	90 e0       	ldi	r25, 0x00	; 0
    105e:	a9 01       	movw	r20, r18
    1060:	02 c0       	rjmp	.+4      	; 0x1066 <DIO_Uchar8_tGetPinVal+0x6c>
    1062:	55 95       	asr	r21
    1064:	47 95       	ror	r20
    1066:	8a 95       	dec	r24
    1068:	e2 f7       	brpl	.-8      	; 0x1062 <DIO_Uchar8_tGetPinVal+0x68>
    106a:	ca 01       	movw	r24, r20
    106c:	81 70       	andi	r24, 0x01	; 1
    106e:	89 83       	std	Y+1, r24	; 0x01
    1070:	35 c0       	rjmp	.+106    	; 0x10dc <DIO_Uchar8_tGetPinVal+0xe2>
		break;
	}
	case PORTB:
	{
		Local_Uchar8_tGetPinVal = GET_BIT(PINB_REG,Copy_Uchar8_tPinNumber);
    1072:	e6 e3       	ldi	r30, 0x36	; 54
    1074:	f0 e0       	ldi	r31, 0x00	; 0
    1076:	80 81       	ld	r24, Z
    1078:	28 2f       	mov	r18, r24
    107a:	30 e0       	ldi	r19, 0x00	; 0
    107c:	8b 81       	ldd	r24, Y+3	; 0x03
    107e:	88 2f       	mov	r24, r24
    1080:	90 e0       	ldi	r25, 0x00	; 0
    1082:	a9 01       	movw	r20, r18
    1084:	02 c0       	rjmp	.+4      	; 0x108a <DIO_Uchar8_tGetPinVal+0x90>
    1086:	55 95       	asr	r21
    1088:	47 95       	ror	r20
    108a:	8a 95       	dec	r24
    108c:	e2 f7       	brpl	.-8      	; 0x1086 <DIO_Uchar8_tGetPinVal+0x8c>
    108e:	ca 01       	movw	r24, r20
    1090:	81 70       	andi	r24, 0x01	; 1
    1092:	89 83       	std	Y+1, r24	; 0x01
    1094:	23 c0       	rjmp	.+70     	; 0x10dc <DIO_Uchar8_tGetPinVal+0xe2>
		break;
	}
	case PORTC:
	{
		Local_Uchar8_tGetPinVal = GET_BIT(PINC_REG,Copy_Uchar8_tPinNumber);
    1096:	e3 e3       	ldi	r30, 0x33	; 51
    1098:	f0 e0       	ldi	r31, 0x00	; 0
    109a:	80 81       	ld	r24, Z
    109c:	28 2f       	mov	r18, r24
    109e:	30 e0       	ldi	r19, 0x00	; 0
    10a0:	8b 81       	ldd	r24, Y+3	; 0x03
    10a2:	88 2f       	mov	r24, r24
    10a4:	90 e0       	ldi	r25, 0x00	; 0
    10a6:	a9 01       	movw	r20, r18
    10a8:	02 c0       	rjmp	.+4      	; 0x10ae <DIO_Uchar8_tGetPinVal+0xb4>
    10aa:	55 95       	asr	r21
    10ac:	47 95       	ror	r20
    10ae:	8a 95       	dec	r24
    10b0:	e2 f7       	brpl	.-8      	; 0x10aa <DIO_Uchar8_tGetPinVal+0xb0>
    10b2:	ca 01       	movw	r24, r20
    10b4:	81 70       	andi	r24, 0x01	; 1
    10b6:	89 83       	std	Y+1, r24	; 0x01
    10b8:	11 c0       	rjmp	.+34     	; 0x10dc <DIO_Uchar8_tGetPinVal+0xe2>
		break;
	}
	case PORTD:
	{
		Local_Uchar8_tGetPinVal = GET_BIT(PIND_REG,Copy_Uchar8_tPinNumber);
    10ba:	e0 e3       	ldi	r30, 0x30	; 48
    10bc:	f0 e0       	ldi	r31, 0x00	; 0
    10be:	80 81       	ld	r24, Z
    10c0:	28 2f       	mov	r18, r24
    10c2:	30 e0       	ldi	r19, 0x00	; 0
    10c4:	8b 81       	ldd	r24, Y+3	; 0x03
    10c6:	88 2f       	mov	r24, r24
    10c8:	90 e0       	ldi	r25, 0x00	; 0
    10ca:	a9 01       	movw	r20, r18
    10cc:	02 c0       	rjmp	.+4      	; 0x10d2 <DIO_Uchar8_tGetPinVal+0xd8>
    10ce:	55 95       	asr	r21
    10d0:	47 95       	ror	r20
    10d2:	8a 95       	dec	r24
    10d4:	e2 f7       	brpl	.-8      	; 0x10ce <DIO_Uchar8_tGetPinVal+0xd4>
    10d6:	ca 01       	movw	r24, r20
    10d8:	81 70       	andi	r24, 0x01	; 1
    10da:	89 83       	std	Y+1, r24	; 0x01
		break;
	}
	}
	return Local_Uchar8_tGetPinVal;
    10dc:	89 81       	ldd	r24, Y+1	; 0x01
}
    10de:	0f 90       	pop	r0
    10e0:	0f 90       	pop	r0
    10e2:	0f 90       	pop	r0
    10e4:	0f 90       	pop	r0
    10e6:	0f 90       	pop	r0
    10e8:	cf 91       	pop	r28
    10ea:	df 91       	pop	r29
    10ec:	08 95       	ret

000010ee <DIO_vSetGroupPinDir>:

void DIO_vSetGroupPinDir(Uchar8_t Copy_Uchar8_tPortName , Uchar8_t Copy_Uchar8_tPinDir)
{
    10ee:	df 93       	push	r29
    10f0:	cf 93       	push	r28
    10f2:	00 d0       	rcall	.+0      	; 0x10f4 <DIO_vSetGroupPinDir+0x6>
    10f4:	00 d0       	rcall	.+0      	; 0x10f6 <DIO_vSetGroupPinDir+0x8>
    10f6:	00 d0       	rcall	.+0      	; 0x10f8 <DIO_vSetGroupPinDir+0xa>
    10f8:	cd b7       	in	r28, 0x3d	; 61
    10fa:	de b7       	in	r29, 0x3e	; 62
    10fc:	89 83       	std	Y+1, r24	; 0x01
    10fe:	6a 83       	std	Y+2, r22	; 0x02

	if(Copy_Uchar8_tPinDir == OUTPUT)
    1100:	8a 81       	ldd	r24, Y+2	; 0x02
    1102:	81 30       	cpi	r24, 0x01	; 1
    1104:	a1 f5       	brne	.+104    	; 0x116e <DIO_vSetGroupPinDir+0x80>
	{
		switch(Copy_Uchar8_tPortName)
    1106:	89 81       	ldd	r24, Y+1	; 0x01
    1108:	28 2f       	mov	r18, r24
    110a:	30 e0       	ldi	r19, 0x00	; 0
    110c:	3e 83       	std	Y+6, r19	; 0x06
    110e:	2d 83       	std	Y+5, r18	; 0x05
    1110:	8d 81       	ldd	r24, Y+5	; 0x05
    1112:	9e 81       	ldd	r25, Y+6	; 0x06
    1114:	82 30       	cpi	r24, 0x02	; 2
    1116:	91 05       	cpc	r25, r1
    1118:	d9 f0       	breq	.+54     	; 0x1150 <DIO_vSetGroupPinDir+0x62>
    111a:	2d 81       	ldd	r18, Y+5	; 0x05
    111c:	3e 81       	ldd	r19, Y+6	; 0x06
    111e:	23 30       	cpi	r18, 0x03	; 3
    1120:	31 05       	cpc	r19, r1
    1122:	34 f4       	brge	.+12     	; 0x1130 <DIO_vSetGroupPinDir+0x42>
    1124:	8d 81       	ldd	r24, Y+5	; 0x05
    1126:	9e 81       	ldd	r25, Y+6	; 0x06
    1128:	81 30       	cpi	r24, 0x01	; 1
    112a:	91 05       	cpc	r25, r1
    112c:	61 f0       	breq	.+24     	; 0x1146 <DIO_vSetGroupPinDir+0x58>
    112e:	51 c0       	rjmp	.+162    	; 0x11d2 <DIO_vSetGroupPinDir+0xe4>
    1130:	2d 81       	ldd	r18, Y+5	; 0x05
    1132:	3e 81       	ldd	r19, Y+6	; 0x06
    1134:	23 30       	cpi	r18, 0x03	; 3
    1136:	31 05       	cpc	r19, r1
    1138:	81 f0       	breq	.+32     	; 0x115a <DIO_vSetGroupPinDir+0x6c>
    113a:	8d 81       	ldd	r24, Y+5	; 0x05
    113c:	9e 81       	ldd	r25, Y+6	; 0x06
    113e:	84 30       	cpi	r24, 0x04	; 4
    1140:	91 05       	cpc	r25, r1
    1142:	81 f0       	breq	.+32     	; 0x1164 <DIO_vSetGroupPinDir+0x76>
    1144:	46 c0       	rjmp	.+140    	; 0x11d2 <DIO_vSetGroupPinDir+0xe4>
		{
		case PORTA:
		{
			DDRA_REG = 0xFF;
    1146:	ea e3       	ldi	r30, 0x3A	; 58
    1148:	f0 e0       	ldi	r31, 0x00	; 0
    114a:	8f ef       	ldi	r24, 0xFF	; 255
    114c:	80 83       	st	Z, r24
    114e:	41 c0       	rjmp	.+130    	; 0x11d2 <DIO_vSetGroupPinDir+0xe4>
			break;
		}
		case PORTB:
		{
			DDRB_REG = 0xFF;
    1150:	e7 e3       	ldi	r30, 0x37	; 55
    1152:	f0 e0       	ldi	r31, 0x00	; 0
    1154:	8f ef       	ldi	r24, 0xFF	; 255
    1156:	80 83       	st	Z, r24
    1158:	3c c0       	rjmp	.+120    	; 0x11d2 <DIO_vSetGroupPinDir+0xe4>
			break;
		}
		case PORTC:
		{
			DDRC_REG = 0xFF;
    115a:	e4 e3       	ldi	r30, 0x34	; 52
    115c:	f0 e0       	ldi	r31, 0x00	; 0
    115e:	8f ef       	ldi	r24, 0xFF	; 255
    1160:	80 83       	st	Z, r24
    1162:	37 c0       	rjmp	.+110    	; 0x11d2 <DIO_vSetGroupPinDir+0xe4>
			break;
		}
		case PORTD:
		{
			DDRD_REG = 0xFF;
    1164:	e1 e3       	ldi	r30, 0x31	; 49
    1166:	f0 e0       	ldi	r31, 0x00	; 0
    1168:	8f ef       	ldi	r24, 0xFF	; 255
    116a:	80 83       	st	Z, r24
    116c:	32 c0       	rjmp	.+100    	; 0x11d2 <DIO_vSetGroupPinDir+0xe4>
			break;
		}
		}
	}
	else if(Copy_Uchar8_tPinDir == INPUT)
    116e:	8a 81       	ldd	r24, Y+2	; 0x02
    1170:	88 23       	and	r24, r24
    1172:	79 f5       	brne	.+94     	; 0x11d2 <DIO_vSetGroupPinDir+0xe4>
	{
		switch(Copy_Uchar8_tPortName)
    1174:	89 81       	ldd	r24, Y+1	; 0x01
    1176:	28 2f       	mov	r18, r24
    1178:	30 e0       	ldi	r19, 0x00	; 0
    117a:	3c 83       	std	Y+4, r19	; 0x04
    117c:	2b 83       	std	Y+3, r18	; 0x03
    117e:	8b 81       	ldd	r24, Y+3	; 0x03
    1180:	9c 81       	ldd	r25, Y+4	; 0x04
    1182:	82 30       	cpi	r24, 0x02	; 2
    1184:	91 05       	cpc	r25, r1
    1186:	d1 f0       	breq	.+52     	; 0x11bc <DIO_vSetGroupPinDir+0xce>
    1188:	2b 81       	ldd	r18, Y+3	; 0x03
    118a:	3c 81       	ldd	r19, Y+4	; 0x04
    118c:	23 30       	cpi	r18, 0x03	; 3
    118e:	31 05       	cpc	r19, r1
    1190:	34 f4       	brge	.+12     	; 0x119e <DIO_vSetGroupPinDir+0xb0>
    1192:	8b 81       	ldd	r24, Y+3	; 0x03
    1194:	9c 81       	ldd	r25, Y+4	; 0x04
    1196:	81 30       	cpi	r24, 0x01	; 1
    1198:	91 05       	cpc	r25, r1
    119a:	61 f0       	breq	.+24     	; 0x11b4 <DIO_vSetGroupPinDir+0xc6>
    119c:	1a c0       	rjmp	.+52     	; 0x11d2 <DIO_vSetGroupPinDir+0xe4>
    119e:	2b 81       	ldd	r18, Y+3	; 0x03
    11a0:	3c 81       	ldd	r19, Y+4	; 0x04
    11a2:	23 30       	cpi	r18, 0x03	; 3
    11a4:	31 05       	cpc	r19, r1
    11a6:	71 f0       	breq	.+28     	; 0x11c4 <DIO_vSetGroupPinDir+0xd6>
    11a8:	8b 81       	ldd	r24, Y+3	; 0x03
    11aa:	9c 81       	ldd	r25, Y+4	; 0x04
    11ac:	84 30       	cpi	r24, 0x04	; 4
    11ae:	91 05       	cpc	r25, r1
    11b0:	69 f0       	breq	.+26     	; 0x11cc <DIO_vSetGroupPinDir+0xde>
    11b2:	0f c0       	rjmp	.+30     	; 0x11d2 <DIO_vSetGroupPinDir+0xe4>
		{
		case PORTA:
		{
			DDRA_REG = 0x00;
    11b4:	ea e3       	ldi	r30, 0x3A	; 58
    11b6:	f0 e0       	ldi	r31, 0x00	; 0
    11b8:	10 82       	st	Z, r1
    11ba:	0b c0       	rjmp	.+22     	; 0x11d2 <DIO_vSetGroupPinDir+0xe4>
			break;
		}
		case PORTB:
		{
			DDRB_REG = 0x00;
    11bc:	e7 e3       	ldi	r30, 0x37	; 55
    11be:	f0 e0       	ldi	r31, 0x00	; 0
    11c0:	10 82       	st	Z, r1
    11c2:	07 c0       	rjmp	.+14     	; 0x11d2 <DIO_vSetGroupPinDir+0xe4>
			break;
		}
		case PORTC:
		{
			DDRC_REG = 0x00;
    11c4:	e4 e3       	ldi	r30, 0x34	; 52
    11c6:	f0 e0       	ldi	r31, 0x00	; 0
    11c8:	10 82       	st	Z, r1
    11ca:	03 c0       	rjmp	.+6      	; 0x11d2 <DIO_vSetGroupPinDir+0xe4>
			break;
		}
		case PORTD:
		{
			DDRD_REG = 0x00;
    11cc:	e1 e3       	ldi	r30, 0x31	; 49
    11ce:	f0 e0       	ldi	r31, 0x00	; 0
    11d0:	10 82       	st	Z, r1
			break;
		}
		}
	}
}
    11d2:	26 96       	adiw	r28, 0x06	; 6
    11d4:	0f b6       	in	r0, 0x3f	; 63
    11d6:	f8 94       	cli
    11d8:	de bf       	out	0x3e, r29	; 62
    11da:	0f be       	out	0x3f, r0	; 63
    11dc:	cd bf       	out	0x3d, r28	; 61
    11de:	cf 91       	pop	r28
    11e0:	df 91       	pop	r29
    11e2:	08 95       	ret

000011e4 <DIO_vSetGroupPinVal>:

void DIO_vSetGroupPinVal(Uchar8_t Copy_Uchar8_tPortName , Uchar8_t Copy_Uchar8_tPinVal)
{
    11e4:	df 93       	push	r29
    11e6:	cf 93       	push	r28
    11e8:	00 d0       	rcall	.+0      	; 0x11ea <DIO_vSetGroupPinVal+0x6>
    11ea:	00 d0       	rcall	.+0      	; 0x11ec <DIO_vSetGroupPinVal+0x8>
    11ec:	00 d0       	rcall	.+0      	; 0x11ee <DIO_vSetGroupPinVal+0xa>
    11ee:	cd b7       	in	r28, 0x3d	; 61
    11f0:	de b7       	in	r29, 0x3e	; 62
    11f2:	89 83       	std	Y+1, r24	; 0x01
    11f4:	6a 83       	std	Y+2, r22	; 0x02
	if(Copy_Uchar8_tPinVal == HIGH)
    11f6:	8a 81       	ldd	r24, Y+2	; 0x02
    11f8:	81 30       	cpi	r24, 0x01	; 1
    11fa:	a1 f5       	brne	.+104    	; 0x1264 <DIO_vSetGroupPinVal+0x80>
	{
		switch(Copy_Uchar8_tPortName)
    11fc:	89 81       	ldd	r24, Y+1	; 0x01
    11fe:	28 2f       	mov	r18, r24
    1200:	30 e0       	ldi	r19, 0x00	; 0
    1202:	3e 83       	std	Y+6, r19	; 0x06
    1204:	2d 83       	std	Y+5, r18	; 0x05
    1206:	8d 81       	ldd	r24, Y+5	; 0x05
    1208:	9e 81       	ldd	r25, Y+6	; 0x06
    120a:	82 30       	cpi	r24, 0x02	; 2
    120c:	91 05       	cpc	r25, r1
    120e:	d9 f0       	breq	.+54     	; 0x1246 <DIO_vSetGroupPinVal+0x62>
    1210:	2d 81       	ldd	r18, Y+5	; 0x05
    1212:	3e 81       	ldd	r19, Y+6	; 0x06
    1214:	23 30       	cpi	r18, 0x03	; 3
    1216:	31 05       	cpc	r19, r1
    1218:	34 f4       	brge	.+12     	; 0x1226 <DIO_vSetGroupPinVal+0x42>
    121a:	8d 81       	ldd	r24, Y+5	; 0x05
    121c:	9e 81       	ldd	r25, Y+6	; 0x06
    121e:	81 30       	cpi	r24, 0x01	; 1
    1220:	91 05       	cpc	r25, r1
    1222:	61 f0       	breq	.+24     	; 0x123c <DIO_vSetGroupPinVal+0x58>
    1224:	51 c0       	rjmp	.+162    	; 0x12c8 <DIO_vSetGroupPinVal+0xe4>
    1226:	2d 81       	ldd	r18, Y+5	; 0x05
    1228:	3e 81       	ldd	r19, Y+6	; 0x06
    122a:	23 30       	cpi	r18, 0x03	; 3
    122c:	31 05       	cpc	r19, r1
    122e:	81 f0       	breq	.+32     	; 0x1250 <DIO_vSetGroupPinVal+0x6c>
    1230:	8d 81       	ldd	r24, Y+5	; 0x05
    1232:	9e 81       	ldd	r25, Y+6	; 0x06
    1234:	84 30       	cpi	r24, 0x04	; 4
    1236:	91 05       	cpc	r25, r1
    1238:	81 f0       	breq	.+32     	; 0x125a <DIO_vSetGroupPinVal+0x76>
    123a:	46 c0       	rjmp	.+140    	; 0x12c8 <DIO_vSetGroupPinVal+0xe4>
		{
		case PORTA:
		{
			PORTA_REG |= 0xFF;
    123c:	eb e3       	ldi	r30, 0x3B	; 59
    123e:	f0 e0       	ldi	r31, 0x00	; 0
    1240:	8f ef       	ldi	r24, 0xFF	; 255
    1242:	80 83       	st	Z, r24
    1244:	41 c0       	rjmp	.+130    	; 0x12c8 <DIO_vSetGroupPinVal+0xe4>
			break;
		}
		case PORTB:
		{
			PORTB_REG |= 0xFF;
    1246:	e8 e3       	ldi	r30, 0x38	; 56
    1248:	f0 e0       	ldi	r31, 0x00	; 0
    124a:	8f ef       	ldi	r24, 0xFF	; 255
    124c:	80 83       	st	Z, r24
    124e:	3c c0       	rjmp	.+120    	; 0x12c8 <DIO_vSetGroupPinVal+0xe4>
			break;
		}
		case PORTC:
		{
			PORTC_REG |= 0xFF;
    1250:	e5 e3       	ldi	r30, 0x35	; 53
    1252:	f0 e0       	ldi	r31, 0x00	; 0
    1254:	8f ef       	ldi	r24, 0xFF	; 255
    1256:	80 83       	st	Z, r24
    1258:	37 c0       	rjmp	.+110    	; 0x12c8 <DIO_vSetGroupPinVal+0xe4>
			break;
		}
		case PORTD:
		{
			PORTD_REG |= 0xFF;
    125a:	e2 e3       	ldi	r30, 0x32	; 50
    125c:	f0 e0       	ldi	r31, 0x00	; 0
    125e:	8f ef       	ldi	r24, 0xFF	; 255
    1260:	80 83       	st	Z, r24
    1262:	32 c0       	rjmp	.+100    	; 0x12c8 <DIO_vSetGroupPinVal+0xe4>
			break;
		}
		}
	}
	else if(Copy_Uchar8_tPinVal == LOW)
    1264:	8a 81       	ldd	r24, Y+2	; 0x02
    1266:	88 23       	and	r24, r24
    1268:	79 f5       	brne	.+94     	; 0x12c8 <DIO_vSetGroupPinVal+0xe4>
	{
		switch(Copy_Uchar8_tPortName)
    126a:	89 81       	ldd	r24, Y+1	; 0x01
    126c:	28 2f       	mov	r18, r24
    126e:	30 e0       	ldi	r19, 0x00	; 0
    1270:	3c 83       	std	Y+4, r19	; 0x04
    1272:	2b 83       	std	Y+3, r18	; 0x03
    1274:	8b 81       	ldd	r24, Y+3	; 0x03
    1276:	9c 81       	ldd	r25, Y+4	; 0x04
    1278:	82 30       	cpi	r24, 0x02	; 2
    127a:	91 05       	cpc	r25, r1
    127c:	d1 f0       	breq	.+52     	; 0x12b2 <DIO_vSetGroupPinVal+0xce>
    127e:	2b 81       	ldd	r18, Y+3	; 0x03
    1280:	3c 81       	ldd	r19, Y+4	; 0x04
    1282:	23 30       	cpi	r18, 0x03	; 3
    1284:	31 05       	cpc	r19, r1
    1286:	34 f4       	brge	.+12     	; 0x1294 <DIO_vSetGroupPinVal+0xb0>
    1288:	8b 81       	ldd	r24, Y+3	; 0x03
    128a:	9c 81       	ldd	r25, Y+4	; 0x04
    128c:	81 30       	cpi	r24, 0x01	; 1
    128e:	91 05       	cpc	r25, r1
    1290:	61 f0       	breq	.+24     	; 0x12aa <DIO_vSetGroupPinVal+0xc6>
    1292:	1a c0       	rjmp	.+52     	; 0x12c8 <DIO_vSetGroupPinVal+0xe4>
    1294:	2b 81       	ldd	r18, Y+3	; 0x03
    1296:	3c 81       	ldd	r19, Y+4	; 0x04
    1298:	23 30       	cpi	r18, 0x03	; 3
    129a:	31 05       	cpc	r19, r1
    129c:	71 f0       	breq	.+28     	; 0x12ba <DIO_vSetGroupPinVal+0xd6>
    129e:	8b 81       	ldd	r24, Y+3	; 0x03
    12a0:	9c 81       	ldd	r25, Y+4	; 0x04
    12a2:	84 30       	cpi	r24, 0x04	; 4
    12a4:	91 05       	cpc	r25, r1
    12a6:	69 f0       	breq	.+26     	; 0x12c2 <DIO_vSetGroupPinVal+0xde>
    12a8:	0f c0       	rjmp	.+30     	; 0x12c8 <DIO_vSetGroupPinVal+0xe4>
		{
		case PORTA:
		{
			PORTA_REG &= 0x00;
    12aa:	eb e3       	ldi	r30, 0x3B	; 59
    12ac:	f0 e0       	ldi	r31, 0x00	; 0
    12ae:	10 82       	st	Z, r1
    12b0:	0b c0       	rjmp	.+22     	; 0x12c8 <DIO_vSetGroupPinVal+0xe4>
			break;
		}
		case PORTB:
		{
			PORTB_REG &= 0x00;
    12b2:	e8 e3       	ldi	r30, 0x38	; 56
    12b4:	f0 e0       	ldi	r31, 0x00	; 0
    12b6:	10 82       	st	Z, r1
    12b8:	07 c0       	rjmp	.+14     	; 0x12c8 <DIO_vSetGroupPinVal+0xe4>
			break;
		}
		case PORTC:
		{
			PORTC_REG &= 0x00;
    12ba:	e5 e3       	ldi	r30, 0x35	; 53
    12bc:	f0 e0       	ldi	r31, 0x00	; 0
    12be:	10 82       	st	Z, r1
    12c0:	03 c0       	rjmp	.+6      	; 0x12c8 <DIO_vSetGroupPinVal+0xe4>
			break;
		}
		case PORTD:
		{
			PORTD_REG &= 0x00;
    12c2:	e2 e3       	ldi	r30, 0x32	; 50
    12c4:	f0 e0       	ldi	r31, 0x00	; 0
    12c6:	10 82       	st	Z, r1
			break;
		}
		}
	}
}
    12c8:	26 96       	adiw	r28, 0x06	; 6
    12ca:	0f b6       	in	r0, 0x3f	; 63
    12cc:	f8 94       	cli
    12ce:	de bf       	out	0x3e, r29	; 62
    12d0:	0f be       	out	0x3f, r0	; 63
    12d2:	cd bf       	out	0x3d, r28	; 61
    12d4:	cf 91       	pop	r28
    12d6:	df 91       	pop	r29
    12d8:	08 95       	ret

000012da <DIO_vSetGroupPinCmd>:

void DIO_vSetGroupPinCmd(Uchar8_t Copy_Uchar8_tPortName , Uchar8_t Copy_Uchar8_tPinCmd)
{
    12da:	df 93       	push	r29
    12dc:	cf 93       	push	r28
    12de:	00 d0       	rcall	.+0      	; 0x12e0 <DIO_vSetGroupPinCmd+0x6>
    12e0:	00 d0       	rcall	.+0      	; 0x12e2 <DIO_vSetGroupPinCmd+0x8>
    12e2:	cd b7       	in	r28, 0x3d	; 61
    12e4:	de b7       	in	r29, 0x3e	; 62
    12e6:	89 83       	std	Y+1, r24	; 0x01
    12e8:	6a 83       	std	Y+2, r22	; 0x02
	switch(Copy_Uchar8_tPortName)
    12ea:	89 81       	ldd	r24, Y+1	; 0x01
    12ec:	28 2f       	mov	r18, r24
    12ee:	30 e0       	ldi	r19, 0x00	; 0
    12f0:	3c 83       	std	Y+4, r19	; 0x04
    12f2:	2b 83       	std	Y+3, r18	; 0x03
    12f4:	8b 81       	ldd	r24, Y+3	; 0x03
    12f6:	9c 81       	ldd	r25, Y+4	; 0x04
    12f8:	82 30       	cpi	r24, 0x02	; 2
    12fa:	91 05       	cpc	r25, r1
    12fc:	11 f1       	breq	.+68     	; 0x1342 <DIO_vSetGroupPinCmd+0x68>
    12fe:	2b 81       	ldd	r18, Y+3	; 0x03
    1300:	3c 81       	ldd	r19, Y+4	; 0x04
    1302:	23 30       	cpi	r18, 0x03	; 3
    1304:	31 05       	cpc	r19, r1
    1306:	34 f4       	brge	.+12     	; 0x1314 <DIO_vSetGroupPinCmd+0x3a>
    1308:	8b 81       	ldd	r24, Y+3	; 0x03
    130a:	9c 81       	ldd	r25, Y+4	; 0x04
    130c:	81 30       	cpi	r24, 0x01	; 1
    130e:	91 05       	cpc	r25, r1
    1310:	61 f0       	breq	.+24     	; 0x132a <DIO_vSetGroupPinCmd+0x50>
    1312:	3a c0       	rjmp	.+116    	; 0x1388 <DIO_vSetGroupPinCmd+0xae>
    1314:	2b 81       	ldd	r18, Y+3	; 0x03
    1316:	3c 81       	ldd	r19, Y+4	; 0x04
    1318:	23 30       	cpi	r18, 0x03	; 3
    131a:	31 05       	cpc	r19, r1
    131c:	f1 f0       	breq	.+60     	; 0x135a <DIO_vSetGroupPinCmd+0x80>
    131e:	8b 81       	ldd	r24, Y+3	; 0x03
    1320:	9c 81       	ldd	r25, Y+4	; 0x04
    1322:	84 30       	cpi	r24, 0x04	; 4
    1324:	91 05       	cpc	r25, r1
    1326:	29 f1       	breq	.+74     	; 0x1372 <DIO_vSetGroupPinCmd+0x98>
    1328:	2f c0       	rjmp	.+94     	; 0x1388 <DIO_vSetGroupPinCmd+0xae>
	{
	case PORTA:
		PORTA_REG &= 0;
    132a:	eb e3       	ldi	r30, 0x3B	; 59
    132c:	f0 e0       	ldi	r31, 0x00	; 0
    132e:	10 82       	st	Z, r1
		PORTA_REG |= Copy_Uchar8_tPinCmd;
    1330:	ab e3       	ldi	r26, 0x3B	; 59
    1332:	b0 e0       	ldi	r27, 0x00	; 0
    1334:	eb e3       	ldi	r30, 0x3B	; 59
    1336:	f0 e0       	ldi	r31, 0x00	; 0
    1338:	90 81       	ld	r25, Z
    133a:	8a 81       	ldd	r24, Y+2	; 0x02
    133c:	89 2b       	or	r24, r25
    133e:	8c 93       	st	X, r24
    1340:	23 c0       	rjmp	.+70     	; 0x1388 <DIO_vSetGroupPinCmd+0xae>
		break;
	case PORTB:
		PORTB_REG &= 0;
    1342:	e8 e3       	ldi	r30, 0x38	; 56
    1344:	f0 e0       	ldi	r31, 0x00	; 0
    1346:	10 82       	st	Z, r1
		PORTB_REG |= Copy_Uchar8_tPinCmd;
    1348:	a8 e3       	ldi	r26, 0x38	; 56
    134a:	b0 e0       	ldi	r27, 0x00	; 0
    134c:	e8 e3       	ldi	r30, 0x38	; 56
    134e:	f0 e0       	ldi	r31, 0x00	; 0
    1350:	90 81       	ld	r25, Z
    1352:	8a 81       	ldd	r24, Y+2	; 0x02
    1354:	89 2b       	or	r24, r25
    1356:	8c 93       	st	X, r24
    1358:	17 c0       	rjmp	.+46     	; 0x1388 <DIO_vSetGroupPinCmd+0xae>
		break;
	case PORTC:
		PORTC_REG &= 0;
    135a:	e5 e3       	ldi	r30, 0x35	; 53
    135c:	f0 e0       	ldi	r31, 0x00	; 0
    135e:	10 82       	st	Z, r1
		PORTC_REG |= Copy_Uchar8_tPinCmd;
    1360:	a5 e3       	ldi	r26, 0x35	; 53
    1362:	b0 e0       	ldi	r27, 0x00	; 0
    1364:	e5 e3       	ldi	r30, 0x35	; 53
    1366:	f0 e0       	ldi	r31, 0x00	; 0
    1368:	90 81       	ld	r25, Z
    136a:	8a 81       	ldd	r24, Y+2	; 0x02
    136c:	89 2b       	or	r24, r25
    136e:	8c 93       	st	X, r24
    1370:	0b c0       	rjmp	.+22     	; 0x1388 <DIO_vSetGroupPinCmd+0xae>
		break;
	case PORTD:
		PORTD_REG &= 0;
    1372:	e2 e3       	ldi	r30, 0x32	; 50
    1374:	f0 e0       	ldi	r31, 0x00	; 0
    1376:	10 82       	st	Z, r1
		PORTD_REG |= Copy_Uchar8_tPinCmd;
    1378:	a2 e3       	ldi	r26, 0x32	; 50
    137a:	b0 e0       	ldi	r27, 0x00	; 0
    137c:	e2 e3       	ldi	r30, 0x32	; 50
    137e:	f0 e0       	ldi	r31, 0x00	; 0
    1380:	90 81       	ld	r25, Z
    1382:	8a 81       	ldd	r24, Y+2	; 0x02
    1384:	89 2b       	or	r24, r25
    1386:	8c 93       	st	X, r24
		break;
	}
}
    1388:	0f 90       	pop	r0
    138a:	0f 90       	pop	r0
    138c:	0f 90       	pop	r0
    138e:	0f 90       	pop	r0
    1390:	cf 91       	pop	r28
    1392:	df 91       	pop	r29
    1394:	08 95       	ret

00001396 <DIO_vSetMsbPinDir>:

void DIO_vSetMsbPinDir(Uchar8_t Copy_Uchar8_tPortName , Uchar8_t Copy_Uchar8_tPinDir)
{
    1396:	df 93       	push	r29
    1398:	cf 93       	push	r28
    139a:	00 d0       	rcall	.+0      	; 0x139c <DIO_vSetMsbPinDir+0x6>
    139c:	cd b7       	in	r28, 0x3d	; 61
    139e:	de b7       	in	r29, 0x3e	; 62
    13a0:	89 83       	std	Y+1, r24	; 0x01
    13a2:	6a 83       	std	Y+2, r22	; 0x02
	DIO_vSetPinDir(Copy_Uchar8_tPortName ,PIN7,Copy_Uchar8_tPinDir);
    13a4:	89 81       	ldd	r24, Y+1	; 0x01
    13a6:	67 e0       	ldi	r22, 0x07	; 7
    13a8:	4a 81       	ldd	r20, Y+2	; 0x02
    13aa:	0e 94 f9 05 	call	0xbf2	; 0xbf2 <DIO_vSetPinDir>
}
    13ae:	0f 90       	pop	r0
    13b0:	0f 90       	pop	r0
    13b2:	cf 91       	pop	r28
    13b4:	df 91       	pop	r29
    13b6:	08 95       	ret

000013b8 <DIO_vSetMsbPinVal>:

void DIO_vSetMsbPinVal(Uchar8_t Copy_Uchar8_tPortName , Uchar8_t Copy_Uchar8_tPinVal)
{
    13b8:	df 93       	push	r29
    13ba:	cf 93       	push	r28
    13bc:	00 d0       	rcall	.+0      	; 0x13be <DIO_vSetMsbPinVal+0x6>
    13be:	cd b7       	in	r28, 0x3d	; 61
    13c0:	de b7       	in	r29, 0x3e	; 62
    13c2:	89 83       	std	Y+1, r24	; 0x01
    13c4:	6a 83       	std	Y+2, r22	; 0x02
	DIO_vSetPinVal(Copy_Uchar8_tPortName ,PIN7,Copy_Uchar8_tPinVal);
    13c6:	89 81       	ldd	r24, Y+1	; 0x01
    13c8:	67 e0       	ldi	r22, 0x07	; 7
    13ca:	4a 81       	ldd	r20, Y+2	; 0x02
    13cc:	0e 94 fb 06 	call	0xdf6	; 0xdf6 <DIO_vSetPinVal>
}
    13d0:	0f 90       	pop	r0
    13d2:	0f 90       	pop	r0
    13d4:	cf 91       	pop	r28
    13d6:	df 91       	pop	r29
    13d8:	08 95       	ret

000013da <DIO_vSetLsbPinDir>:

void DIO_vSetLsbPinDir(Uchar8_t Copy_Uchar8_tPortName , Uchar8_t Copy_Uchar8_tPinDir)
{
    13da:	df 93       	push	r29
    13dc:	cf 93       	push	r28
    13de:	00 d0       	rcall	.+0      	; 0x13e0 <DIO_vSetLsbPinDir+0x6>
    13e0:	cd b7       	in	r28, 0x3d	; 61
    13e2:	de b7       	in	r29, 0x3e	; 62
    13e4:	89 83       	std	Y+1, r24	; 0x01
    13e6:	6a 83       	std	Y+2, r22	; 0x02
	DIO_vSetPinDir(Copy_Uchar8_tPortName ,PIN0,Copy_Uchar8_tPinDir);
    13e8:	89 81       	ldd	r24, Y+1	; 0x01
    13ea:	60 e0       	ldi	r22, 0x00	; 0
    13ec:	4a 81       	ldd	r20, Y+2	; 0x02
    13ee:	0e 94 f9 05 	call	0xbf2	; 0xbf2 <DIO_vSetPinDir>
}
    13f2:	0f 90       	pop	r0
    13f4:	0f 90       	pop	r0
    13f6:	cf 91       	pop	r28
    13f8:	df 91       	pop	r29
    13fa:	08 95       	ret

000013fc <DIO_vSetLsbPinVal>:

void DIO_vSetLsbPinVal(Uchar8_t Copy_Uchar8_tPortName , Uchar8_t Copy_Uchar8_tPinVal)
{
    13fc:	df 93       	push	r29
    13fe:	cf 93       	push	r28
    1400:	00 d0       	rcall	.+0      	; 0x1402 <DIO_vSetLsbPinVal+0x6>
    1402:	cd b7       	in	r28, 0x3d	; 61
    1404:	de b7       	in	r29, 0x3e	; 62
    1406:	89 83       	std	Y+1, r24	; 0x01
    1408:	6a 83       	std	Y+2, r22	; 0x02
	DIO_vSetPinVal(Copy_Uchar8_tPortName ,PIN0,Copy_Uchar8_tPinVal);
    140a:	89 81       	ldd	r24, Y+1	; 0x01
    140c:	60 e0       	ldi	r22, 0x00	; 0
    140e:	4a 81       	ldd	r20, Y+2	; 0x02
    1410:	0e 94 fb 06 	call	0xdf6	; 0xdf6 <DIO_vSetPinVal>
}
    1414:	0f 90       	pop	r0
    1416:	0f 90       	pop	r0
    1418:	cf 91       	pop	r28
    141a:	df 91       	pop	r29
    141c:	08 95       	ret

0000141e <DIO_vSet4LsbPinDir>:

void DIO_vSet4LsbPinDir(Uchar8_t Copy_Uchar8_tPortName , Uchar8_t Copy_Uchar8_tPinDir)
{
    141e:	df 93       	push	r29
    1420:	cf 93       	push	r28
    1422:	00 d0       	rcall	.+0      	; 0x1424 <DIO_vSet4LsbPinDir+0x6>
    1424:	00 d0       	rcall	.+0      	; 0x1426 <DIO_vSet4LsbPinDir+0x8>
    1426:	00 d0       	rcall	.+0      	; 0x1428 <DIO_vSet4LsbPinDir+0xa>
    1428:	cd b7       	in	r28, 0x3d	; 61
    142a:	de b7       	in	r29, 0x3e	; 62
    142c:	89 83       	std	Y+1, r24	; 0x01
    142e:	6a 83       	std	Y+2, r22	; 0x02
	if(Copy_Uchar8_tPinDir == OUTPUT)
    1430:	8a 81       	ldd	r24, Y+2	; 0x02
    1432:	81 30       	cpi	r24, 0x01	; 1
    1434:	09 f0       	breq	.+2      	; 0x1438 <DIO_vSet4LsbPinDir+0x1a>
    1436:	40 c0       	rjmp	.+128    	; 0x14b8 <DIO_vSet4LsbPinDir+0x9a>
	{
		switch(Copy_Uchar8_tPortName)
    1438:	89 81       	ldd	r24, Y+1	; 0x01
    143a:	28 2f       	mov	r18, r24
    143c:	30 e0       	ldi	r19, 0x00	; 0
    143e:	3e 83       	std	Y+6, r19	; 0x06
    1440:	2d 83       	std	Y+5, r18	; 0x05
    1442:	8d 81       	ldd	r24, Y+5	; 0x05
    1444:	9e 81       	ldd	r25, Y+6	; 0x06
    1446:	82 30       	cpi	r24, 0x02	; 2
    1448:	91 05       	cpc	r25, r1
    144a:	f1 f0       	breq	.+60     	; 0x1488 <DIO_vSet4LsbPinDir+0x6a>
    144c:	2d 81       	ldd	r18, Y+5	; 0x05
    144e:	3e 81       	ldd	r19, Y+6	; 0x06
    1450:	23 30       	cpi	r18, 0x03	; 3
    1452:	31 05       	cpc	r19, r1
    1454:	34 f4       	brge	.+12     	; 0x1462 <DIO_vSet4LsbPinDir+0x44>
    1456:	8d 81       	ldd	r24, Y+5	; 0x05
    1458:	9e 81       	ldd	r25, Y+6	; 0x06
    145a:	81 30       	cpi	r24, 0x01	; 1
    145c:	91 05       	cpc	r25, r1
    145e:	61 f0       	breq	.+24     	; 0x1478 <DIO_vSet4LsbPinDir+0x5a>
    1460:	6e c0       	rjmp	.+220    	; 0x153e <DIO_vSet4LsbPinDir+0x120>
    1462:	2d 81       	ldd	r18, Y+5	; 0x05
    1464:	3e 81       	ldd	r19, Y+6	; 0x06
    1466:	23 30       	cpi	r18, 0x03	; 3
    1468:	31 05       	cpc	r19, r1
    146a:	b1 f0       	breq	.+44     	; 0x1498 <DIO_vSet4LsbPinDir+0x7a>
    146c:	8d 81       	ldd	r24, Y+5	; 0x05
    146e:	9e 81       	ldd	r25, Y+6	; 0x06
    1470:	84 30       	cpi	r24, 0x04	; 4
    1472:	91 05       	cpc	r25, r1
    1474:	c9 f0       	breq	.+50     	; 0x14a8 <DIO_vSet4LsbPinDir+0x8a>
    1476:	63 c0       	rjmp	.+198    	; 0x153e <DIO_vSet4LsbPinDir+0x120>
		{
		case PORTA:
		{
			DDRA_REG |= 0x0F;
    1478:	aa e3       	ldi	r26, 0x3A	; 58
    147a:	b0 e0       	ldi	r27, 0x00	; 0
    147c:	ea e3       	ldi	r30, 0x3A	; 58
    147e:	f0 e0       	ldi	r31, 0x00	; 0
    1480:	80 81       	ld	r24, Z
    1482:	8f 60       	ori	r24, 0x0F	; 15
    1484:	8c 93       	st	X, r24
    1486:	5b c0       	rjmp	.+182    	; 0x153e <DIO_vSet4LsbPinDir+0x120>
			break;
		}
		case PORTB:
		{
			DDRB_REG |= 0x0F;
    1488:	a7 e3       	ldi	r26, 0x37	; 55
    148a:	b0 e0       	ldi	r27, 0x00	; 0
    148c:	e7 e3       	ldi	r30, 0x37	; 55
    148e:	f0 e0       	ldi	r31, 0x00	; 0
    1490:	80 81       	ld	r24, Z
    1492:	8f 60       	ori	r24, 0x0F	; 15
    1494:	8c 93       	st	X, r24
    1496:	53 c0       	rjmp	.+166    	; 0x153e <DIO_vSet4LsbPinDir+0x120>
			break;
		}
		case PORTC:
		{
			DDRC_REG |= 0x0F;
    1498:	a4 e3       	ldi	r26, 0x34	; 52
    149a:	b0 e0       	ldi	r27, 0x00	; 0
    149c:	e4 e3       	ldi	r30, 0x34	; 52
    149e:	f0 e0       	ldi	r31, 0x00	; 0
    14a0:	80 81       	ld	r24, Z
    14a2:	8f 60       	ori	r24, 0x0F	; 15
    14a4:	8c 93       	st	X, r24
    14a6:	4b c0       	rjmp	.+150    	; 0x153e <DIO_vSet4LsbPinDir+0x120>
			break;
		}
		case PORTD:
		{
			DDRD_REG |= 0x0F;
    14a8:	a1 e3       	ldi	r26, 0x31	; 49
    14aa:	b0 e0       	ldi	r27, 0x00	; 0
    14ac:	e1 e3       	ldi	r30, 0x31	; 49
    14ae:	f0 e0       	ldi	r31, 0x00	; 0
    14b0:	80 81       	ld	r24, Z
    14b2:	8f 60       	ori	r24, 0x0F	; 15
    14b4:	8c 93       	st	X, r24
    14b6:	43 c0       	rjmp	.+134    	; 0x153e <DIO_vSet4LsbPinDir+0x120>
			break;
		}
		}
	}
	else if(Copy_Uchar8_tPinDir == INPUT)
    14b8:	8a 81       	ldd	r24, Y+2	; 0x02
    14ba:	88 23       	and	r24, r24
    14bc:	09 f0       	breq	.+2      	; 0x14c0 <DIO_vSet4LsbPinDir+0xa2>
    14be:	3f c0       	rjmp	.+126    	; 0x153e <DIO_vSet4LsbPinDir+0x120>
	{
		switch(Copy_Uchar8_tPortName)
    14c0:	89 81       	ldd	r24, Y+1	; 0x01
    14c2:	28 2f       	mov	r18, r24
    14c4:	30 e0       	ldi	r19, 0x00	; 0
    14c6:	3c 83       	std	Y+4, r19	; 0x04
    14c8:	2b 83       	std	Y+3, r18	; 0x03
    14ca:	8b 81       	ldd	r24, Y+3	; 0x03
    14cc:	9c 81       	ldd	r25, Y+4	; 0x04
    14ce:	82 30       	cpi	r24, 0x02	; 2
    14d0:	91 05       	cpc	r25, r1
    14d2:	f1 f0       	breq	.+60     	; 0x1510 <DIO_vSet4LsbPinDir+0xf2>
    14d4:	2b 81       	ldd	r18, Y+3	; 0x03
    14d6:	3c 81       	ldd	r19, Y+4	; 0x04
    14d8:	23 30       	cpi	r18, 0x03	; 3
    14da:	31 05       	cpc	r19, r1
    14dc:	34 f4       	brge	.+12     	; 0x14ea <DIO_vSet4LsbPinDir+0xcc>
    14de:	8b 81       	ldd	r24, Y+3	; 0x03
    14e0:	9c 81       	ldd	r25, Y+4	; 0x04
    14e2:	81 30       	cpi	r24, 0x01	; 1
    14e4:	91 05       	cpc	r25, r1
    14e6:	61 f0       	breq	.+24     	; 0x1500 <DIO_vSet4LsbPinDir+0xe2>
    14e8:	2a c0       	rjmp	.+84     	; 0x153e <DIO_vSet4LsbPinDir+0x120>
    14ea:	2b 81       	ldd	r18, Y+3	; 0x03
    14ec:	3c 81       	ldd	r19, Y+4	; 0x04
    14ee:	23 30       	cpi	r18, 0x03	; 3
    14f0:	31 05       	cpc	r19, r1
    14f2:	b1 f0       	breq	.+44     	; 0x1520 <DIO_vSet4LsbPinDir+0x102>
    14f4:	8b 81       	ldd	r24, Y+3	; 0x03
    14f6:	9c 81       	ldd	r25, Y+4	; 0x04
    14f8:	84 30       	cpi	r24, 0x04	; 4
    14fa:	91 05       	cpc	r25, r1
    14fc:	c9 f0       	breq	.+50     	; 0x1530 <DIO_vSet4LsbPinDir+0x112>
    14fe:	1f c0       	rjmp	.+62     	; 0x153e <DIO_vSet4LsbPinDir+0x120>
		{
		case PORTA:
		{
			DDRA_REG &=0xF0;
    1500:	aa e3       	ldi	r26, 0x3A	; 58
    1502:	b0 e0       	ldi	r27, 0x00	; 0
    1504:	ea e3       	ldi	r30, 0x3A	; 58
    1506:	f0 e0       	ldi	r31, 0x00	; 0
    1508:	80 81       	ld	r24, Z
    150a:	80 7f       	andi	r24, 0xF0	; 240
    150c:	8c 93       	st	X, r24
    150e:	17 c0       	rjmp	.+46     	; 0x153e <DIO_vSet4LsbPinDir+0x120>
			break;
		}
		case PORTB:
		{
			DDRB_REG &=0xF0;
    1510:	a7 e3       	ldi	r26, 0x37	; 55
    1512:	b0 e0       	ldi	r27, 0x00	; 0
    1514:	e7 e3       	ldi	r30, 0x37	; 55
    1516:	f0 e0       	ldi	r31, 0x00	; 0
    1518:	80 81       	ld	r24, Z
    151a:	80 7f       	andi	r24, 0xF0	; 240
    151c:	8c 93       	st	X, r24
    151e:	0f c0       	rjmp	.+30     	; 0x153e <DIO_vSet4LsbPinDir+0x120>
			break;
		}
		case PORTC:
		{
			DDRC_REG &=0xF0;
    1520:	a4 e3       	ldi	r26, 0x34	; 52
    1522:	b0 e0       	ldi	r27, 0x00	; 0
    1524:	e4 e3       	ldi	r30, 0x34	; 52
    1526:	f0 e0       	ldi	r31, 0x00	; 0
    1528:	80 81       	ld	r24, Z
    152a:	80 7f       	andi	r24, 0xF0	; 240
    152c:	8c 93       	st	X, r24
    152e:	07 c0       	rjmp	.+14     	; 0x153e <DIO_vSet4LsbPinDir+0x120>
			break;
		}
		case PORTD:
		{
			DDRD_REG &= 0xF0;
    1530:	a1 e3       	ldi	r26, 0x31	; 49
    1532:	b0 e0       	ldi	r27, 0x00	; 0
    1534:	e1 e3       	ldi	r30, 0x31	; 49
    1536:	f0 e0       	ldi	r31, 0x00	; 0
    1538:	80 81       	ld	r24, Z
    153a:	80 7f       	andi	r24, 0xF0	; 240
    153c:	8c 93       	st	X, r24
			break;
		}
		}
	}
}
    153e:	26 96       	adiw	r28, 0x06	; 6
    1540:	0f b6       	in	r0, 0x3f	; 63
    1542:	f8 94       	cli
    1544:	de bf       	out	0x3e, r29	; 62
    1546:	0f be       	out	0x3f, r0	; 63
    1548:	cd bf       	out	0x3d, r28	; 61
    154a:	cf 91       	pop	r28
    154c:	df 91       	pop	r29
    154e:	08 95       	ret

00001550 <DIO_vSet4LsbPinVal>:
void DIO_vSet4LsbPinVal(Uchar8_t Copy_Uchar8_tPortName , Uchar8_t Copy_Uchar8_tPinVal)
{
    1550:	df 93       	push	r29
    1552:	cf 93       	push	r28
    1554:	00 d0       	rcall	.+0      	; 0x1556 <DIO_vSet4LsbPinVal+0x6>
    1556:	00 d0       	rcall	.+0      	; 0x1558 <DIO_vSet4LsbPinVal+0x8>
    1558:	00 d0       	rcall	.+0      	; 0x155a <DIO_vSet4LsbPinVal+0xa>
    155a:	cd b7       	in	r28, 0x3d	; 61
    155c:	de b7       	in	r29, 0x3e	; 62
    155e:	89 83       	std	Y+1, r24	; 0x01
    1560:	6a 83       	std	Y+2, r22	; 0x02
	if(Copy_Uchar8_tPinVal == HIGH)
    1562:	8a 81       	ldd	r24, Y+2	; 0x02
    1564:	81 30       	cpi	r24, 0x01	; 1
    1566:	09 f0       	breq	.+2      	; 0x156a <DIO_vSet4LsbPinVal+0x1a>
    1568:	40 c0       	rjmp	.+128    	; 0x15ea <DIO_vSet4LsbPinVal+0x9a>
	{
		switch(Copy_Uchar8_tPortName)
    156a:	89 81       	ldd	r24, Y+1	; 0x01
    156c:	28 2f       	mov	r18, r24
    156e:	30 e0       	ldi	r19, 0x00	; 0
    1570:	3e 83       	std	Y+6, r19	; 0x06
    1572:	2d 83       	std	Y+5, r18	; 0x05
    1574:	8d 81       	ldd	r24, Y+5	; 0x05
    1576:	9e 81       	ldd	r25, Y+6	; 0x06
    1578:	82 30       	cpi	r24, 0x02	; 2
    157a:	91 05       	cpc	r25, r1
    157c:	f1 f0       	breq	.+60     	; 0x15ba <DIO_vSet4LsbPinVal+0x6a>
    157e:	2d 81       	ldd	r18, Y+5	; 0x05
    1580:	3e 81       	ldd	r19, Y+6	; 0x06
    1582:	23 30       	cpi	r18, 0x03	; 3
    1584:	31 05       	cpc	r19, r1
    1586:	34 f4       	brge	.+12     	; 0x1594 <DIO_vSet4LsbPinVal+0x44>
    1588:	8d 81       	ldd	r24, Y+5	; 0x05
    158a:	9e 81       	ldd	r25, Y+6	; 0x06
    158c:	81 30       	cpi	r24, 0x01	; 1
    158e:	91 05       	cpc	r25, r1
    1590:	61 f0       	breq	.+24     	; 0x15aa <DIO_vSet4LsbPinVal+0x5a>
    1592:	6e c0       	rjmp	.+220    	; 0x1670 <DIO_vSet4LsbPinVal+0x120>
    1594:	2d 81       	ldd	r18, Y+5	; 0x05
    1596:	3e 81       	ldd	r19, Y+6	; 0x06
    1598:	23 30       	cpi	r18, 0x03	; 3
    159a:	31 05       	cpc	r19, r1
    159c:	b1 f0       	breq	.+44     	; 0x15ca <DIO_vSet4LsbPinVal+0x7a>
    159e:	8d 81       	ldd	r24, Y+5	; 0x05
    15a0:	9e 81       	ldd	r25, Y+6	; 0x06
    15a2:	84 30       	cpi	r24, 0x04	; 4
    15a4:	91 05       	cpc	r25, r1
    15a6:	c9 f0       	breq	.+50     	; 0x15da <DIO_vSet4LsbPinVal+0x8a>
    15a8:	63 c0       	rjmp	.+198    	; 0x1670 <DIO_vSet4LsbPinVal+0x120>
		{
		case PORTA:
		{
			PORTA_REG |= 0x0F;
    15aa:	ab e3       	ldi	r26, 0x3B	; 59
    15ac:	b0 e0       	ldi	r27, 0x00	; 0
    15ae:	eb e3       	ldi	r30, 0x3B	; 59
    15b0:	f0 e0       	ldi	r31, 0x00	; 0
    15b2:	80 81       	ld	r24, Z
    15b4:	8f 60       	ori	r24, 0x0F	; 15
    15b6:	8c 93       	st	X, r24
    15b8:	5b c0       	rjmp	.+182    	; 0x1670 <DIO_vSet4LsbPinVal+0x120>
			break;
		}
		case PORTB:
		{
			PORTB_REG |= 0x0F;
    15ba:	a8 e3       	ldi	r26, 0x38	; 56
    15bc:	b0 e0       	ldi	r27, 0x00	; 0
    15be:	e8 e3       	ldi	r30, 0x38	; 56
    15c0:	f0 e0       	ldi	r31, 0x00	; 0
    15c2:	80 81       	ld	r24, Z
    15c4:	8f 60       	ori	r24, 0x0F	; 15
    15c6:	8c 93       	st	X, r24
    15c8:	53 c0       	rjmp	.+166    	; 0x1670 <DIO_vSet4LsbPinVal+0x120>
			break;
		}
		case PORTC:
		{
			PORTC_REG |= 0x0F;
    15ca:	a5 e3       	ldi	r26, 0x35	; 53
    15cc:	b0 e0       	ldi	r27, 0x00	; 0
    15ce:	e5 e3       	ldi	r30, 0x35	; 53
    15d0:	f0 e0       	ldi	r31, 0x00	; 0
    15d2:	80 81       	ld	r24, Z
    15d4:	8f 60       	ori	r24, 0x0F	; 15
    15d6:	8c 93       	st	X, r24
    15d8:	4b c0       	rjmp	.+150    	; 0x1670 <DIO_vSet4LsbPinVal+0x120>
			break;
		}
		case PORTD:
		{
			PORTD_REG |= 0x0F;
    15da:	a2 e3       	ldi	r26, 0x32	; 50
    15dc:	b0 e0       	ldi	r27, 0x00	; 0
    15de:	e2 e3       	ldi	r30, 0x32	; 50
    15e0:	f0 e0       	ldi	r31, 0x00	; 0
    15e2:	80 81       	ld	r24, Z
    15e4:	8f 60       	ori	r24, 0x0F	; 15
    15e6:	8c 93       	st	X, r24
    15e8:	43 c0       	rjmp	.+134    	; 0x1670 <DIO_vSet4LsbPinVal+0x120>
			break;
		}
		}
	}
	else if(Copy_Uchar8_tPinVal == LOW)
    15ea:	8a 81       	ldd	r24, Y+2	; 0x02
    15ec:	88 23       	and	r24, r24
    15ee:	09 f0       	breq	.+2      	; 0x15f2 <DIO_vSet4LsbPinVal+0xa2>
    15f0:	3f c0       	rjmp	.+126    	; 0x1670 <DIO_vSet4LsbPinVal+0x120>
	{
		switch(Copy_Uchar8_tPortName)
    15f2:	89 81       	ldd	r24, Y+1	; 0x01
    15f4:	28 2f       	mov	r18, r24
    15f6:	30 e0       	ldi	r19, 0x00	; 0
    15f8:	3c 83       	std	Y+4, r19	; 0x04
    15fa:	2b 83       	std	Y+3, r18	; 0x03
    15fc:	8b 81       	ldd	r24, Y+3	; 0x03
    15fe:	9c 81       	ldd	r25, Y+4	; 0x04
    1600:	82 30       	cpi	r24, 0x02	; 2
    1602:	91 05       	cpc	r25, r1
    1604:	f1 f0       	breq	.+60     	; 0x1642 <DIO_vSet4LsbPinVal+0xf2>
    1606:	2b 81       	ldd	r18, Y+3	; 0x03
    1608:	3c 81       	ldd	r19, Y+4	; 0x04
    160a:	23 30       	cpi	r18, 0x03	; 3
    160c:	31 05       	cpc	r19, r1
    160e:	34 f4       	brge	.+12     	; 0x161c <DIO_vSet4LsbPinVal+0xcc>
    1610:	8b 81       	ldd	r24, Y+3	; 0x03
    1612:	9c 81       	ldd	r25, Y+4	; 0x04
    1614:	81 30       	cpi	r24, 0x01	; 1
    1616:	91 05       	cpc	r25, r1
    1618:	61 f0       	breq	.+24     	; 0x1632 <DIO_vSet4LsbPinVal+0xe2>
    161a:	2a c0       	rjmp	.+84     	; 0x1670 <DIO_vSet4LsbPinVal+0x120>
    161c:	2b 81       	ldd	r18, Y+3	; 0x03
    161e:	3c 81       	ldd	r19, Y+4	; 0x04
    1620:	23 30       	cpi	r18, 0x03	; 3
    1622:	31 05       	cpc	r19, r1
    1624:	b1 f0       	breq	.+44     	; 0x1652 <DIO_vSet4LsbPinVal+0x102>
    1626:	8b 81       	ldd	r24, Y+3	; 0x03
    1628:	9c 81       	ldd	r25, Y+4	; 0x04
    162a:	84 30       	cpi	r24, 0x04	; 4
    162c:	91 05       	cpc	r25, r1
    162e:	c9 f0       	breq	.+50     	; 0x1662 <DIO_vSet4LsbPinVal+0x112>
    1630:	1f c0       	rjmp	.+62     	; 0x1670 <DIO_vSet4LsbPinVal+0x120>
		{
		case PORTA:
		{
			PORTA_REG &= 0xF0;
    1632:	ab e3       	ldi	r26, 0x3B	; 59
    1634:	b0 e0       	ldi	r27, 0x00	; 0
    1636:	eb e3       	ldi	r30, 0x3B	; 59
    1638:	f0 e0       	ldi	r31, 0x00	; 0
    163a:	80 81       	ld	r24, Z
    163c:	80 7f       	andi	r24, 0xF0	; 240
    163e:	8c 93       	st	X, r24
    1640:	17 c0       	rjmp	.+46     	; 0x1670 <DIO_vSet4LsbPinVal+0x120>
			break;
		}
		case PORTB:
		{
			PORTB_REG &= 0xF0;
    1642:	a8 e3       	ldi	r26, 0x38	; 56
    1644:	b0 e0       	ldi	r27, 0x00	; 0
    1646:	e8 e3       	ldi	r30, 0x38	; 56
    1648:	f0 e0       	ldi	r31, 0x00	; 0
    164a:	80 81       	ld	r24, Z
    164c:	80 7f       	andi	r24, 0xF0	; 240
    164e:	8c 93       	st	X, r24
    1650:	0f c0       	rjmp	.+30     	; 0x1670 <DIO_vSet4LsbPinVal+0x120>
			break;
		}
		case PORTC:
		{
			PORTC_REG &= 0xF0;
    1652:	a5 e3       	ldi	r26, 0x35	; 53
    1654:	b0 e0       	ldi	r27, 0x00	; 0
    1656:	e5 e3       	ldi	r30, 0x35	; 53
    1658:	f0 e0       	ldi	r31, 0x00	; 0
    165a:	80 81       	ld	r24, Z
    165c:	80 7f       	andi	r24, 0xF0	; 240
    165e:	8c 93       	st	X, r24
    1660:	07 c0       	rjmp	.+14     	; 0x1670 <DIO_vSet4LsbPinVal+0x120>
			break;
		}
		case PORTD:
		{
			PORTD_REG &= 0xF0;
    1662:	a2 e3       	ldi	r26, 0x32	; 50
    1664:	b0 e0       	ldi	r27, 0x00	; 0
    1666:	e2 e3       	ldi	r30, 0x32	; 50
    1668:	f0 e0       	ldi	r31, 0x00	; 0
    166a:	80 81       	ld	r24, Z
    166c:	80 7f       	andi	r24, 0xF0	; 240
    166e:	8c 93       	st	X, r24
			break;
		}

		}
	}
}
    1670:	26 96       	adiw	r28, 0x06	; 6
    1672:	0f b6       	in	r0, 0x3f	; 63
    1674:	f8 94       	cli
    1676:	de bf       	out	0x3e, r29	; 62
    1678:	0f be       	out	0x3f, r0	; 63
    167a:	cd bf       	out	0x3d, r28	; 61
    167c:	cf 91       	pop	r28
    167e:	df 91       	pop	r29
    1680:	08 95       	ret

00001682 <DIO_vSet4MsbPinDir>:


void DIO_vSet4MsbPinDir(Uchar8_t Copy_Uchar8_tPortName , Uchar8_t Copy_Uchar8_tPinDir)
{
    1682:	df 93       	push	r29
    1684:	cf 93       	push	r28
    1686:	00 d0       	rcall	.+0      	; 0x1688 <DIO_vSet4MsbPinDir+0x6>
    1688:	00 d0       	rcall	.+0      	; 0x168a <DIO_vSet4MsbPinDir+0x8>
    168a:	00 d0       	rcall	.+0      	; 0x168c <DIO_vSet4MsbPinDir+0xa>
    168c:	cd b7       	in	r28, 0x3d	; 61
    168e:	de b7       	in	r29, 0x3e	; 62
    1690:	89 83       	std	Y+1, r24	; 0x01
    1692:	6a 83       	std	Y+2, r22	; 0x02
	if(Copy_Uchar8_tPinDir == OUTPUT)
    1694:	8a 81       	ldd	r24, Y+2	; 0x02
    1696:	81 30       	cpi	r24, 0x01	; 1
    1698:	09 f0       	breq	.+2      	; 0x169c <DIO_vSet4MsbPinDir+0x1a>
    169a:	40 c0       	rjmp	.+128    	; 0x171c <DIO_vSet4MsbPinDir+0x9a>
	{
		switch(Copy_Uchar8_tPortName)
    169c:	89 81       	ldd	r24, Y+1	; 0x01
    169e:	28 2f       	mov	r18, r24
    16a0:	30 e0       	ldi	r19, 0x00	; 0
    16a2:	3e 83       	std	Y+6, r19	; 0x06
    16a4:	2d 83       	std	Y+5, r18	; 0x05
    16a6:	8d 81       	ldd	r24, Y+5	; 0x05
    16a8:	9e 81       	ldd	r25, Y+6	; 0x06
    16aa:	82 30       	cpi	r24, 0x02	; 2
    16ac:	91 05       	cpc	r25, r1
    16ae:	f1 f0       	breq	.+60     	; 0x16ec <DIO_vSet4MsbPinDir+0x6a>
    16b0:	2d 81       	ldd	r18, Y+5	; 0x05
    16b2:	3e 81       	ldd	r19, Y+6	; 0x06
    16b4:	23 30       	cpi	r18, 0x03	; 3
    16b6:	31 05       	cpc	r19, r1
    16b8:	34 f4       	brge	.+12     	; 0x16c6 <DIO_vSet4MsbPinDir+0x44>
    16ba:	8d 81       	ldd	r24, Y+5	; 0x05
    16bc:	9e 81       	ldd	r25, Y+6	; 0x06
    16be:	81 30       	cpi	r24, 0x01	; 1
    16c0:	91 05       	cpc	r25, r1
    16c2:	61 f0       	breq	.+24     	; 0x16dc <DIO_vSet4MsbPinDir+0x5a>
    16c4:	6e c0       	rjmp	.+220    	; 0x17a2 <DIO_vSet4MsbPinDir+0x120>
    16c6:	2d 81       	ldd	r18, Y+5	; 0x05
    16c8:	3e 81       	ldd	r19, Y+6	; 0x06
    16ca:	23 30       	cpi	r18, 0x03	; 3
    16cc:	31 05       	cpc	r19, r1
    16ce:	b1 f0       	breq	.+44     	; 0x16fc <DIO_vSet4MsbPinDir+0x7a>
    16d0:	8d 81       	ldd	r24, Y+5	; 0x05
    16d2:	9e 81       	ldd	r25, Y+6	; 0x06
    16d4:	84 30       	cpi	r24, 0x04	; 4
    16d6:	91 05       	cpc	r25, r1
    16d8:	c9 f0       	breq	.+50     	; 0x170c <DIO_vSet4MsbPinDir+0x8a>
    16da:	63 c0       	rjmp	.+198    	; 0x17a2 <DIO_vSet4MsbPinDir+0x120>
		{
		case PORTA:
		{
			DDRA_REG |= 0xF0;
    16dc:	aa e3       	ldi	r26, 0x3A	; 58
    16de:	b0 e0       	ldi	r27, 0x00	; 0
    16e0:	ea e3       	ldi	r30, 0x3A	; 58
    16e2:	f0 e0       	ldi	r31, 0x00	; 0
    16e4:	80 81       	ld	r24, Z
    16e6:	80 6f       	ori	r24, 0xF0	; 240
    16e8:	8c 93       	st	X, r24
    16ea:	5b c0       	rjmp	.+182    	; 0x17a2 <DIO_vSet4MsbPinDir+0x120>
			break;
		}
		case PORTB:
		{
			DDRB_REG |= 0xF0;
    16ec:	a7 e3       	ldi	r26, 0x37	; 55
    16ee:	b0 e0       	ldi	r27, 0x00	; 0
    16f0:	e7 e3       	ldi	r30, 0x37	; 55
    16f2:	f0 e0       	ldi	r31, 0x00	; 0
    16f4:	80 81       	ld	r24, Z
    16f6:	80 6f       	ori	r24, 0xF0	; 240
    16f8:	8c 93       	st	X, r24
    16fa:	53 c0       	rjmp	.+166    	; 0x17a2 <DIO_vSet4MsbPinDir+0x120>
			break;
		}
		case PORTC:
		{
			DDRC_REG |= 0xF0;
    16fc:	a4 e3       	ldi	r26, 0x34	; 52
    16fe:	b0 e0       	ldi	r27, 0x00	; 0
    1700:	e4 e3       	ldi	r30, 0x34	; 52
    1702:	f0 e0       	ldi	r31, 0x00	; 0
    1704:	80 81       	ld	r24, Z
    1706:	80 6f       	ori	r24, 0xF0	; 240
    1708:	8c 93       	st	X, r24
    170a:	4b c0       	rjmp	.+150    	; 0x17a2 <DIO_vSet4MsbPinDir+0x120>
			break;
		}
		case PORTD:
		{
			DDRD_REG |= 0xF0;
    170c:	a1 e3       	ldi	r26, 0x31	; 49
    170e:	b0 e0       	ldi	r27, 0x00	; 0
    1710:	e1 e3       	ldi	r30, 0x31	; 49
    1712:	f0 e0       	ldi	r31, 0x00	; 0
    1714:	80 81       	ld	r24, Z
    1716:	80 6f       	ori	r24, 0xF0	; 240
    1718:	8c 93       	st	X, r24
    171a:	43 c0       	rjmp	.+134    	; 0x17a2 <DIO_vSet4MsbPinDir+0x120>
			break;
		}
		}
	}
	else if(Copy_Uchar8_tPinDir == INPUT)
    171c:	8a 81       	ldd	r24, Y+2	; 0x02
    171e:	88 23       	and	r24, r24
    1720:	09 f0       	breq	.+2      	; 0x1724 <DIO_vSet4MsbPinDir+0xa2>
    1722:	3f c0       	rjmp	.+126    	; 0x17a2 <DIO_vSet4MsbPinDir+0x120>
	{
		switch(Copy_Uchar8_tPortName)
    1724:	89 81       	ldd	r24, Y+1	; 0x01
    1726:	28 2f       	mov	r18, r24
    1728:	30 e0       	ldi	r19, 0x00	; 0
    172a:	3c 83       	std	Y+4, r19	; 0x04
    172c:	2b 83       	std	Y+3, r18	; 0x03
    172e:	8b 81       	ldd	r24, Y+3	; 0x03
    1730:	9c 81       	ldd	r25, Y+4	; 0x04
    1732:	82 30       	cpi	r24, 0x02	; 2
    1734:	91 05       	cpc	r25, r1
    1736:	f1 f0       	breq	.+60     	; 0x1774 <DIO_vSet4MsbPinDir+0xf2>
    1738:	2b 81       	ldd	r18, Y+3	; 0x03
    173a:	3c 81       	ldd	r19, Y+4	; 0x04
    173c:	23 30       	cpi	r18, 0x03	; 3
    173e:	31 05       	cpc	r19, r1
    1740:	34 f4       	brge	.+12     	; 0x174e <DIO_vSet4MsbPinDir+0xcc>
    1742:	8b 81       	ldd	r24, Y+3	; 0x03
    1744:	9c 81       	ldd	r25, Y+4	; 0x04
    1746:	81 30       	cpi	r24, 0x01	; 1
    1748:	91 05       	cpc	r25, r1
    174a:	61 f0       	breq	.+24     	; 0x1764 <DIO_vSet4MsbPinDir+0xe2>
    174c:	2a c0       	rjmp	.+84     	; 0x17a2 <DIO_vSet4MsbPinDir+0x120>
    174e:	2b 81       	ldd	r18, Y+3	; 0x03
    1750:	3c 81       	ldd	r19, Y+4	; 0x04
    1752:	23 30       	cpi	r18, 0x03	; 3
    1754:	31 05       	cpc	r19, r1
    1756:	b1 f0       	breq	.+44     	; 0x1784 <DIO_vSet4MsbPinDir+0x102>
    1758:	8b 81       	ldd	r24, Y+3	; 0x03
    175a:	9c 81       	ldd	r25, Y+4	; 0x04
    175c:	84 30       	cpi	r24, 0x04	; 4
    175e:	91 05       	cpc	r25, r1
    1760:	c9 f0       	breq	.+50     	; 0x1794 <DIO_vSet4MsbPinDir+0x112>
    1762:	1f c0       	rjmp	.+62     	; 0x17a2 <DIO_vSet4MsbPinDir+0x120>
		{
		case PORTA:
		{
			DDRA_REG &=0x0F;
    1764:	aa e3       	ldi	r26, 0x3A	; 58
    1766:	b0 e0       	ldi	r27, 0x00	; 0
    1768:	ea e3       	ldi	r30, 0x3A	; 58
    176a:	f0 e0       	ldi	r31, 0x00	; 0
    176c:	80 81       	ld	r24, Z
    176e:	8f 70       	andi	r24, 0x0F	; 15
    1770:	8c 93       	st	X, r24
    1772:	17 c0       	rjmp	.+46     	; 0x17a2 <DIO_vSet4MsbPinDir+0x120>
			break;
		}
		case PORTB:
		{
			DDRB_REG &=0x0F;
    1774:	a7 e3       	ldi	r26, 0x37	; 55
    1776:	b0 e0       	ldi	r27, 0x00	; 0
    1778:	e7 e3       	ldi	r30, 0x37	; 55
    177a:	f0 e0       	ldi	r31, 0x00	; 0
    177c:	80 81       	ld	r24, Z
    177e:	8f 70       	andi	r24, 0x0F	; 15
    1780:	8c 93       	st	X, r24
    1782:	0f c0       	rjmp	.+30     	; 0x17a2 <DIO_vSet4MsbPinDir+0x120>
			break;
		}
		case PORTC:
		{
			DDRC_REG &=0x0F;
    1784:	a4 e3       	ldi	r26, 0x34	; 52
    1786:	b0 e0       	ldi	r27, 0x00	; 0
    1788:	e4 e3       	ldi	r30, 0x34	; 52
    178a:	f0 e0       	ldi	r31, 0x00	; 0
    178c:	80 81       	ld	r24, Z
    178e:	8f 70       	andi	r24, 0x0F	; 15
    1790:	8c 93       	st	X, r24
    1792:	07 c0       	rjmp	.+14     	; 0x17a2 <DIO_vSet4MsbPinDir+0x120>
			break;
		}
		case PORTD:
		{
			DDRD_REG &= 0x0F;
    1794:	a1 e3       	ldi	r26, 0x31	; 49
    1796:	b0 e0       	ldi	r27, 0x00	; 0
    1798:	e1 e3       	ldi	r30, 0x31	; 49
    179a:	f0 e0       	ldi	r31, 0x00	; 0
    179c:	80 81       	ld	r24, Z
    179e:	8f 70       	andi	r24, 0x0F	; 15
    17a0:	8c 93       	st	X, r24
			break;
		}
		}
	}

}
    17a2:	26 96       	adiw	r28, 0x06	; 6
    17a4:	0f b6       	in	r0, 0x3f	; 63
    17a6:	f8 94       	cli
    17a8:	de bf       	out	0x3e, r29	; 62
    17aa:	0f be       	out	0x3f, r0	; 63
    17ac:	cd bf       	out	0x3d, r28	; 61
    17ae:	cf 91       	pop	r28
    17b0:	df 91       	pop	r29
    17b2:	08 95       	ret

000017b4 <DIO_vSet4MsbPinVal>:
void DIO_vSet4MsbPinVal(Uchar8_t Copy_Uchar8_tPortName , Uchar8_t Copy_Uchar8_tPinVal)
{
    17b4:	df 93       	push	r29
    17b6:	cf 93       	push	r28
    17b8:	00 d0       	rcall	.+0      	; 0x17ba <DIO_vSet4MsbPinVal+0x6>
    17ba:	00 d0       	rcall	.+0      	; 0x17bc <DIO_vSet4MsbPinVal+0x8>
    17bc:	00 d0       	rcall	.+0      	; 0x17be <DIO_vSet4MsbPinVal+0xa>
    17be:	cd b7       	in	r28, 0x3d	; 61
    17c0:	de b7       	in	r29, 0x3e	; 62
    17c2:	89 83       	std	Y+1, r24	; 0x01
    17c4:	6a 83       	std	Y+2, r22	; 0x02
	if(Copy_Uchar8_tPinVal == HIGH)
    17c6:	8a 81       	ldd	r24, Y+2	; 0x02
    17c8:	81 30       	cpi	r24, 0x01	; 1
    17ca:	09 f0       	breq	.+2      	; 0x17ce <DIO_vSet4MsbPinVal+0x1a>
    17cc:	40 c0       	rjmp	.+128    	; 0x184e <DIO_vSet4MsbPinVal+0x9a>
	{
		switch(Copy_Uchar8_tPortName)
    17ce:	89 81       	ldd	r24, Y+1	; 0x01
    17d0:	28 2f       	mov	r18, r24
    17d2:	30 e0       	ldi	r19, 0x00	; 0
    17d4:	3e 83       	std	Y+6, r19	; 0x06
    17d6:	2d 83       	std	Y+5, r18	; 0x05
    17d8:	8d 81       	ldd	r24, Y+5	; 0x05
    17da:	9e 81       	ldd	r25, Y+6	; 0x06
    17dc:	82 30       	cpi	r24, 0x02	; 2
    17de:	91 05       	cpc	r25, r1
    17e0:	f1 f0       	breq	.+60     	; 0x181e <DIO_vSet4MsbPinVal+0x6a>
    17e2:	2d 81       	ldd	r18, Y+5	; 0x05
    17e4:	3e 81       	ldd	r19, Y+6	; 0x06
    17e6:	23 30       	cpi	r18, 0x03	; 3
    17e8:	31 05       	cpc	r19, r1
    17ea:	34 f4       	brge	.+12     	; 0x17f8 <DIO_vSet4MsbPinVal+0x44>
    17ec:	8d 81       	ldd	r24, Y+5	; 0x05
    17ee:	9e 81       	ldd	r25, Y+6	; 0x06
    17f0:	81 30       	cpi	r24, 0x01	; 1
    17f2:	91 05       	cpc	r25, r1
    17f4:	61 f0       	breq	.+24     	; 0x180e <DIO_vSet4MsbPinVal+0x5a>
    17f6:	6e c0       	rjmp	.+220    	; 0x18d4 <DIO_vSet4MsbPinVal+0x120>
    17f8:	2d 81       	ldd	r18, Y+5	; 0x05
    17fa:	3e 81       	ldd	r19, Y+6	; 0x06
    17fc:	23 30       	cpi	r18, 0x03	; 3
    17fe:	31 05       	cpc	r19, r1
    1800:	b1 f0       	breq	.+44     	; 0x182e <DIO_vSet4MsbPinVal+0x7a>
    1802:	8d 81       	ldd	r24, Y+5	; 0x05
    1804:	9e 81       	ldd	r25, Y+6	; 0x06
    1806:	84 30       	cpi	r24, 0x04	; 4
    1808:	91 05       	cpc	r25, r1
    180a:	c9 f0       	breq	.+50     	; 0x183e <DIO_vSet4MsbPinVal+0x8a>
    180c:	63 c0       	rjmp	.+198    	; 0x18d4 <DIO_vSet4MsbPinVal+0x120>
		{
		case PORTA:
		{
			PORTA_REG |= 0xF0;
    180e:	ab e3       	ldi	r26, 0x3B	; 59
    1810:	b0 e0       	ldi	r27, 0x00	; 0
    1812:	eb e3       	ldi	r30, 0x3B	; 59
    1814:	f0 e0       	ldi	r31, 0x00	; 0
    1816:	80 81       	ld	r24, Z
    1818:	80 6f       	ori	r24, 0xF0	; 240
    181a:	8c 93       	st	X, r24
    181c:	5b c0       	rjmp	.+182    	; 0x18d4 <DIO_vSet4MsbPinVal+0x120>
			break;
		}
		case PORTB:
		{
			PORTB_REG |= 0xF0;
    181e:	a8 e3       	ldi	r26, 0x38	; 56
    1820:	b0 e0       	ldi	r27, 0x00	; 0
    1822:	e8 e3       	ldi	r30, 0x38	; 56
    1824:	f0 e0       	ldi	r31, 0x00	; 0
    1826:	80 81       	ld	r24, Z
    1828:	80 6f       	ori	r24, 0xF0	; 240
    182a:	8c 93       	st	X, r24
    182c:	53 c0       	rjmp	.+166    	; 0x18d4 <DIO_vSet4MsbPinVal+0x120>
			break;
		}
		case PORTC:
		{
			PORTC_REG |= 0xF0;
    182e:	a5 e3       	ldi	r26, 0x35	; 53
    1830:	b0 e0       	ldi	r27, 0x00	; 0
    1832:	e5 e3       	ldi	r30, 0x35	; 53
    1834:	f0 e0       	ldi	r31, 0x00	; 0
    1836:	80 81       	ld	r24, Z
    1838:	80 6f       	ori	r24, 0xF0	; 240
    183a:	8c 93       	st	X, r24
    183c:	4b c0       	rjmp	.+150    	; 0x18d4 <DIO_vSet4MsbPinVal+0x120>
			break;
		}
		case PORTD:
		{
			PORTD_REG |= 0xF0;
    183e:	a2 e3       	ldi	r26, 0x32	; 50
    1840:	b0 e0       	ldi	r27, 0x00	; 0
    1842:	e2 e3       	ldi	r30, 0x32	; 50
    1844:	f0 e0       	ldi	r31, 0x00	; 0
    1846:	80 81       	ld	r24, Z
    1848:	80 6f       	ori	r24, 0xF0	; 240
    184a:	8c 93       	st	X, r24
    184c:	43 c0       	rjmp	.+134    	; 0x18d4 <DIO_vSet4MsbPinVal+0x120>
			break;
		}
		}
	}
	else if(Copy_Uchar8_tPinVal == LOW)
    184e:	8a 81       	ldd	r24, Y+2	; 0x02
    1850:	88 23       	and	r24, r24
    1852:	09 f0       	breq	.+2      	; 0x1856 <DIO_vSet4MsbPinVal+0xa2>
    1854:	3f c0       	rjmp	.+126    	; 0x18d4 <DIO_vSet4MsbPinVal+0x120>
	{
		switch(Copy_Uchar8_tPortName)
    1856:	89 81       	ldd	r24, Y+1	; 0x01
    1858:	28 2f       	mov	r18, r24
    185a:	30 e0       	ldi	r19, 0x00	; 0
    185c:	3c 83       	std	Y+4, r19	; 0x04
    185e:	2b 83       	std	Y+3, r18	; 0x03
    1860:	8b 81       	ldd	r24, Y+3	; 0x03
    1862:	9c 81       	ldd	r25, Y+4	; 0x04
    1864:	82 30       	cpi	r24, 0x02	; 2
    1866:	91 05       	cpc	r25, r1
    1868:	f1 f0       	breq	.+60     	; 0x18a6 <DIO_vSet4MsbPinVal+0xf2>
    186a:	2b 81       	ldd	r18, Y+3	; 0x03
    186c:	3c 81       	ldd	r19, Y+4	; 0x04
    186e:	23 30       	cpi	r18, 0x03	; 3
    1870:	31 05       	cpc	r19, r1
    1872:	34 f4       	brge	.+12     	; 0x1880 <DIO_vSet4MsbPinVal+0xcc>
    1874:	8b 81       	ldd	r24, Y+3	; 0x03
    1876:	9c 81       	ldd	r25, Y+4	; 0x04
    1878:	81 30       	cpi	r24, 0x01	; 1
    187a:	91 05       	cpc	r25, r1
    187c:	61 f0       	breq	.+24     	; 0x1896 <DIO_vSet4MsbPinVal+0xe2>
    187e:	2a c0       	rjmp	.+84     	; 0x18d4 <DIO_vSet4MsbPinVal+0x120>
    1880:	2b 81       	ldd	r18, Y+3	; 0x03
    1882:	3c 81       	ldd	r19, Y+4	; 0x04
    1884:	23 30       	cpi	r18, 0x03	; 3
    1886:	31 05       	cpc	r19, r1
    1888:	b1 f0       	breq	.+44     	; 0x18b6 <DIO_vSet4MsbPinVal+0x102>
    188a:	8b 81       	ldd	r24, Y+3	; 0x03
    188c:	9c 81       	ldd	r25, Y+4	; 0x04
    188e:	84 30       	cpi	r24, 0x04	; 4
    1890:	91 05       	cpc	r25, r1
    1892:	c9 f0       	breq	.+50     	; 0x18c6 <DIO_vSet4MsbPinVal+0x112>
    1894:	1f c0       	rjmp	.+62     	; 0x18d4 <DIO_vSet4MsbPinVal+0x120>
		{
		case PORTA:
		{
			PORTA_REG &=0x0F;
    1896:	ab e3       	ldi	r26, 0x3B	; 59
    1898:	b0 e0       	ldi	r27, 0x00	; 0
    189a:	eb e3       	ldi	r30, 0x3B	; 59
    189c:	f0 e0       	ldi	r31, 0x00	; 0
    189e:	80 81       	ld	r24, Z
    18a0:	8f 70       	andi	r24, 0x0F	; 15
    18a2:	8c 93       	st	X, r24
    18a4:	17 c0       	rjmp	.+46     	; 0x18d4 <DIO_vSet4MsbPinVal+0x120>
			break;
		}
		case PORTB:
		{
			PORTB_REG &=0x0F;
    18a6:	a8 e3       	ldi	r26, 0x38	; 56
    18a8:	b0 e0       	ldi	r27, 0x00	; 0
    18aa:	e8 e3       	ldi	r30, 0x38	; 56
    18ac:	f0 e0       	ldi	r31, 0x00	; 0
    18ae:	80 81       	ld	r24, Z
    18b0:	8f 70       	andi	r24, 0x0F	; 15
    18b2:	8c 93       	st	X, r24
    18b4:	0f c0       	rjmp	.+30     	; 0x18d4 <DIO_vSet4MsbPinVal+0x120>
			break;
		}
		case PORTC:
		{
			PORTC_REG &=0x0F;
    18b6:	a5 e3       	ldi	r26, 0x35	; 53
    18b8:	b0 e0       	ldi	r27, 0x00	; 0
    18ba:	e5 e3       	ldi	r30, 0x35	; 53
    18bc:	f0 e0       	ldi	r31, 0x00	; 0
    18be:	80 81       	ld	r24, Z
    18c0:	8f 70       	andi	r24, 0x0F	; 15
    18c2:	8c 93       	st	X, r24
    18c4:	07 c0       	rjmp	.+14     	; 0x18d4 <DIO_vSet4MsbPinVal+0x120>
			break;
		}
		case PORTD:
		{
			PORTD_REG &= 0x0F;
    18c6:	a2 e3       	ldi	r26, 0x32	; 50
    18c8:	b0 e0       	ldi	r27, 0x00	; 0
    18ca:	e2 e3       	ldi	r30, 0x32	; 50
    18cc:	f0 e0       	ldi	r31, 0x00	; 0
    18ce:	80 81       	ld	r24, Z
    18d0:	8f 70       	andi	r24, 0x0F	; 15
    18d2:	8c 93       	st	X, r24
			break;
		}
		}
	}

}
    18d4:	26 96       	adiw	r28, 0x06	; 6
    18d6:	0f b6       	in	r0, 0x3f	; 63
    18d8:	f8 94       	cli
    18da:	de bf       	out	0x3e, r29	; 62
    18dc:	0f be       	out	0x3f, r0	; 63
    18de:	cd bf       	out	0x3d, r28	; 61
    18e0:	cf 91       	pop	r28
    18e2:	df 91       	pop	r29
    18e4:	08 95       	ret

000018e6 <ADC_vInit>:

#include"ADC_Interface.h"


void ADC_vInit(Uchar8_t Copy_Uchar8_tAdcVoltageControl , Uchar8_t Copy_Uchar8_tAdcPrescaler)
{
    18e6:	df 93       	push	r29
    18e8:	cf 93       	push	r28
    18ea:	00 d0       	rcall	.+0      	; 0x18ec <ADC_vInit+0x6>
    18ec:	00 d0       	rcall	.+0      	; 0x18ee <ADC_vInit+0x8>
    18ee:	00 d0       	rcall	.+0      	; 0x18f0 <ADC_vInit+0xa>
    18f0:	cd b7       	in	r28, 0x3d	; 61
    18f2:	de b7       	in	r29, 0x3e	; 62
    18f4:	89 83       	std	Y+1, r24	; 0x01
    18f6:	6a 83       	std	Y+2, r22	; 0x02
	switch(Copy_Uchar8_tAdcVoltageControl)
    18f8:	89 81       	ldd	r24, Y+1	; 0x01
    18fa:	28 2f       	mov	r18, r24
    18fc:	30 e0       	ldi	r19, 0x00	; 0
    18fe:	3e 83       	std	Y+6, r19	; 0x06
    1900:	2d 83       	std	Y+5, r18	; 0x05
    1902:	8d 81       	ldd	r24, Y+5	; 0x05
    1904:	9e 81       	ldd	r25, Y+6	; 0x06
    1906:	81 30       	cpi	r24, 0x01	; 1
    1908:	91 05       	cpc	r25, r1
    190a:	c1 f0       	breq	.+48     	; 0x193c <ADC_vInit+0x56>
    190c:	2d 81       	ldd	r18, Y+5	; 0x05
    190e:	3e 81       	ldd	r19, Y+6	; 0x06
    1910:	22 30       	cpi	r18, 0x02	; 2
    1912:	31 05       	cpc	r19, r1
    1914:	11 f1       	breq	.+68     	; 0x195a <ADC_vInit+0x74>
    1916:	8d 81       	ldd	r24, Y+5	; 0x05
    1918:	9e 81       	ldd	r25, Y+6	; 0x06
    191a:	00 97       	sbiw	r24, 0x00	; 0
    191c:	61 f5       	brne	.+88     	; 0x1976 <ADC_vInit+0x90>
	{
	case ADC_AREFF_VOLTAGE:
	{
		CLEAR_BIT(ADMUX_REG,ADMUX_REG_REFS1_BIT);
    191e:	a7 e2       	ldi	r26, 0x27	; 39
    1920:	b0 e0       	ldi	r27, 0x00	; 0
    1922:	e7 e2       	ldi	r30, 0x27	; 39
    1924:	f0 e0       	ldi	r31, 0x00	; 0
    1926:	80 81       	ld	r24, Z
    1928:	8f 77       	andi	r24, 0x7F	; 127
    192a:	8c 93       	st	X, r24
		CLEAR_BIT(ADMUX_REG,ADMUX_REG_REFS0_BIT);
    192c:	a7 e2       	ldi	r26, 0x27	; 39
    192e:	b0 e0       	ldi	r27, 0x00	; 0
    1930:	e7 e2       	ldi	r30, 0x27	; 39
    1932:	f0 e0       	ldi	r31, 0x00	; 0
    1934:	80 81       	ld	r24, Z
    1936:	8f 7b       	andi	r24, 0xBF	; 191
    1938:	8c 93       	st	X, r24
    193a:	1d c0       	rjmp	.+58     	; 0x1976 <ADC_vInit+0x90>
		break;
	}
	case ADC_AVCC_VOLTAGE:
	{
		CLEAR_BIT(ADMUX_REG,ADMUX_REG_REFS1_BIT);
    193c:	a7 e2       	ldi	r26, 0x27	; 39
    193e:	b0 e0       	ldi	r27, 0x00	; 0
    1940:	e7 e2       	ldi	r30, 0x27	; 39
    1942:	f0 e0       	ldi	r31, 0x00	; 0
    1944:	80 81       	ld	r24, Z
    1946:	8f 77       	andi	r24, 0x7F	; 127
    1948:	8c 93       	st	X, r24
		SET_BIT(ADMUX_REG,ADMUX_REG_REFS0_BIT);
    194a:	a7 e2       	ldi	r26, 0x27	; 39
    194c:	b0 e0       	ldi	r27, 0x00	; 0
    194e:	e7 e2       	ldi	r30, 0x27	; 39
    1950:	f0 e0       	ldi	r31, 0x00	; 0
    1952:	80 81       	ld	r24, Z
    1954:	80 64       	ori	r24, 0x40	; 64
    1956:	8c 93       	st	X, r24
    1958:	0e c0       	rjmp	.+28     	; 0x1976 <ADC_vInit+0x90>
		break;
	}
	case ADC_INTERNAL_VOLTAGE:
	{
		SET_BIT(ADMUX_REG,ADMUX_REG_REFS0_BIT);
    195a:	a7 e2       	ldi	r26, 0x27	; 39
    195c:	b0 e0       	ldi	r27, 0x00	; 0
    195e:	e7 e2       	ldi	r30, 0x27	; 39
    1960:	f0 e0       	ldi	r31, 0x00	; 0
    1962:	80 81       	ld	r24, Z
    1964:	80 64       	ori	r24, 0x40	; 64
    1966:	8c 93       	st	X, r24
		SET_BIT(ADMUX_REG,ADMUX_REG_REFS1_BIT);
    1968:	a7 e2       	ldi	r26, 0x27	; 39
    196a:	b0 e0       	ldi	r27, 0x00	; 0
    196c:	e7 e2       	ldi	r30, 0x27	; 39
    196e:	f0 e0       	ldi	r31, 0x00	; 0
    1970:	80 81       	ld	r24, Z
    1972:	80 68       	ori	r24, 0x80	; 128
    1974:	8c 93       	st	X, r24
		break;
	}
	}
	switch(Copy_Uchar8_tAdcPrescaler)
    1976:	8a 81       	ldd	r24, Y+2	; 0x02
    1978:	28 2f       	mov	r18, r24
    197a:	30 e0       	ldi	r19, 0x00	; 0
    197c:	3c 83       	std	Y+4, r19	; 0x04
    197e:	2b 83       	std	Y+3, r18	; 0x03
    1980:	8b 81       	ldd	r24, Y+3	; 0x03
    1982:	9c 81       	ldd	r25, Y+4	; 0x04
    1984:	83 30       	cpi	r24, 0x03	; 3
    1986:	91 05       	cpc	r25, r1
    1988:	09 f4       	brne	.+2      	; 0x198c <ADC_vInit+0xa6>
    198a:	3e c0       	rjmp	.+124    	; 0x1a08 <ADC_vInit+0x122>
    198c:	2b 81       	ldd	r18, Y+3	; 0x03
    198e:	3c 81       	ldd	r19, Y+4	; 0x04
    1990:	24 30       	cpi	r18, 0x04	; 4
    1992:	31 05       	cpc	r19, r1
    1994:	7c f4       	brge	.+30     	; 0x19b4 <ADC_vInit+0xce>
    1996:	8b 81       	ldd	r24, Y+3	; 0x03
    1998:	9c 81       	ldd	r25, Y+4	; 0x04
    199a:	81 30       	cpi	r24, 0x01	; 1
    199c:	91 05       	cpc	r25, r1
    199e:	11 f1       	breq	.+68     	; 0x19e4 <ADC_vInit+0xfe>
    19a0:	2b 81       	ldd	r18, Y+3	; 0x03
    19a2:	3c 81       	ldd	r19, Y+4	; 0x04
    19a4:	22 30       	cpi	r18, 0x02	; 2
    19a6:	31 05       	cpc	r19, r1
    19a8:	34 f5       	brge	.+76     	; 0x19f6 <ADC_vInit+0x110>
    19aa:	8b 81       	ldd	r24, Y+3	; 0x03
    19ac:	9c 81       	ldd	r25, Y+4	; 0x04
    19ae:	00 97       	sbiw	r24, 0x00	; 0
    19b0:	89 f0       	breq	.+34     	; 0x19d4 <ADC_vInit+0xee>
    19b2:	4c c0       	rjmp	.+152    	; 0x1a4c <ADC_vInit+0x166>
    19b4:	2b 81       	ldd	r18, Y+3	; 0x03
    19b6:	3c 81       	ldd	r19, Y+4	; 0x04
    19b8:	25 30       	cpi	r18, 0x05	; 5
    19ba:	31 05       	cpc	r19, r1
    19bc:	b9 f1       	breq	.+110    	; 0x1a2c <ADC_vInit+0x146>
    19be:	8b 81       	ldd	r24, Y+3	; 0x03
    19c0:	9c 81       	ldd	r25, Y+4	; 0x04
    19c2:	85 30       	cpi	r24, 0x05	; 5
    19c4:	91 05       	cpc	r25, r1
    19c6:	4c f1       	brlt	.+82     	; 0x1a1a <ADC_vInit+0x134>
    19c8:	2b 81       	ldd	r18, Y+3	; 0x03
    19ca:	3c 81       	ldd	r19, Y+4	; 0x04
    19cc:	26 30       	cpi	r18, 0x06	; 6
    19ce:	31 05       	cpc	r19, r1
    19d0:	b1 f1       	breq	.+108    	; 0x1a3e <ADC_vInit+0x158>
    19d2:	3c c0       	rjmp	.+120    	; 0x1a4c <ADC_vInit+0x166>
	{
	case ADC_PRE2:
	{
		ADCSRA_REG = (ADMUX_REG & 0xF8 ) | (ADC_DIV2 & 0b00000111 );
    19d4:	a6 e2       	ldi	r26, 0x26	; 38
    19d6:	b0 e0       	ldi	r27, 0x00	; 0
    19d8:	e7 e2       	ldi	r30, 0x27	; 39
    19da:	f0 e0       	ldi	r31, 0x00	; 0
    19dc:	80 81       	ld	r24, Z
    19de:	88 7f       	andi	r24, 0xF8	; 248
    19e0:	8c 93       	st	X, r24
    19e2:	34 c0       	rjmp	.+104    	; 0x1a4c <ADC_vInit+0x166>
		break;
	}
	case ADC_PRE4:
	{
		ADCSRA_REG = (ADMUX_REG & 0xF8 ) | (ADC_DIV4 & 0b00000111 );
    19e4:	a6 e2       	ldi	r26, 0x26	; 38
    19e6:	b0 e0       	ldi	r27, 0x00	; 0
    19e8:	e7 e2       	ldi	r30, 0x27	; 39
    19ea:	f0 e0       	ldi	r31, 0x00	; 0
    19ec:	80 81       	ld	r24, Z
    19ee:	88 7f       	andi	r24, 0xF8	; 248
    19f0:	82 60       	ori	r24, 0x02	; 2
    19f2:	8c 93       	st	X, r24
    19f4:	2b c0       	rjmp	.+86     	; 0x1a4c <ADC_vInit+0x166>
		break;
	}
	case ADC_PRE8:
	{
		ADCSRA_REG = (ADMUX_REG & 0xF8 ) | (ADC_DIV8 & 0b00000111 );
    19f6:	a6 e2       	ldi	r26, 0x26	; 38
    19f8:	b0 e0       	ldi	r27, 0x00	; 0
    19fa:	e7 e2       	ldi	r30, 0x27	; 39
    19fc:	f0 e0       	ldi	r31, 0x00	; 0
    19fe:	80 81       	ld	r24, Z
    1a00:	88 7f       	andi	r24, 0xF8	; 248
    1a02:	83 60       	ori	r24, 0x03	; 3
    1a04:	8c 93       	st	X, r24
    1a06:	22 c0       	rjmp	.+68     	; 0x1a4c <ADC_vInit+0x166>
		break;
	}
	case ADC_PRE16:
	{
		ADCSRA_REG = (ADMUX_REG & 0xF8 ) | (ADC_DIV16 & 0b00000111 );
    1a08:	a6 e2       	ldi	r26, 0x26	; 38
    1a0a:	b0 e0       	ldi	r27, 0x00	; 0
    1a0c:	e7 e2       	ldi	r30, 0x27	; 39
    1a0e:	f0 e0       	ldi	r31, 0x00	; 0
    1a10:	80 81       	ld	r24, Z
    1a12:	88 7f       	andi	r24, 0xF8	; 248
    1a14:	84 60       	ori	r24, 0x04	; 4
    1a16:	8c 93       	st	X, r24
    1a18:	19 c0       	rjmp	.+50     	; 0x1a4c <ADC_vInit+0x166>
		break;
	}
	case ADC_PRE32:
	{
		ADCSRA_REG = (ADMUX_REG & 0xF8 ) | (ADC_DIV32 & 0b00000111 );
    1a1a:	a6 e2       	ldi	r26, 0x26	; 38
    1a1c:	b0 e0       	ldi	r27, 0x00	; 0
    1a1e:	e7 e2       	ldi	r30, 0x27	; 39
    1a20:	f0 e0       	ldi	r31, 0x00	; 0
    1a22:	80 81       	ld	r24, Z
    1a24:	88 7f       	andi	r24, 0xF8	; 248
    1a26:	85 60       	ori	r24, 0x05	; 5
    1a28:	8c 93       	st	X, r24
    1a2a:	10 c0       	rjmp	.+32     	; 0x1a4c <ADC_vInit+0x166>
		break;
	}
	case ADC_PRE64:
	{
		ADCSRA_REG = (ADMUX_REG & 0xF8 ) | (ADC_DIV64 & 0b00000111 );
    1a2c:	a6 e2       	ldi	r26, 0x26	; 38
    1a2e:	b0 e0       	ldi	r27, 0x00	; 0
    1a30:	e7 e2       	ldi	r30, 0x27	; 39
    1a32:	f0 e0       	ldi	r31, 0x00	; 0
    1a34:	80 81       	ld	r24, Z
    1a36:	88 7f       	andi	r24, 0xF8	; 248
    1a38:	86 60       	ori	r24, 0x06	; 6
    1a3a:	8c 93       	st	X, r24
    1a3c:	07 c0       	rjmp	.+14     	; 0x1a4c <ADC_vInit+0x166>
		break;
	}
	case ADC_PRE128:
	{
		ADCSRA_REG = (ADMUX_REG & 0xF8 ) | (ADC_DIV128 & 0b00000111 );
    1a3e:	a6 e2       	ldi	r26, 0x26	; 38
    1a40:	b0 e0       	ldi	r27, 0x00	; 0
    1a42:	e7 e2       	ldi	r30, 0x27	; 39
    1a44:	f0 e0       	ldi	r31, 0x00	; 0
    1a46:	80 81       	ld	r24, Z
    1a48:	87 60       	ori	r24, 0x07	; 7
    1a4a:	8c 93       	st	X, r24
		break;
	}
	}

	CLEAR_BIT(ADCSRA_REG,ADCSRA_REG_ADIF_BIT);
    1a4c:	a6 e2       	ldi	r26, 0x26	; 38
    1a4e:	b0 e0       	ldi	r27, 0x00	; 0
    1a50:	e6 e2       	ldi	r30, 0x26	; 38
    1a52:	f0 e0       	ldi	r31, 0x00	; 0
    1a54:	80 81       	ld	r24, Z
    1a56:	8f 7e       	andi	r24, 0xEF	; 239
    1a58:	8c 93       	st	X, r24
	SET_BIT(ADCSRA_REG,ADCSRA_REG_ADEN_BIT);
    1a5a:	a6 e2       	ldi	r26, 0x26	; 38
    1a5c:	b0 e0       	ldi	r27, 0x00	; 0
    1a5e:	e6 e2       	ldi	r30, 0x26	; 38
    1a60:	f0 e0       	ldi	r31, 0x00	; 0
    1a62:	80 81       	ld	r24, Z
    1a64:	80 68       	ori	r24, 0x80	; 128
    1a66:	8c 93       	st	X, r24
}
    1a68:	26 96       	adiw	r28, 0x06	; 6
    1a6a:	0f b6       	in	r0, 0x3f	; 63
    1a6c:	f8 94       	cli
    1a6e:	de bf       	out	0x3e, r29	; 62
    1a70:	0f be       	out	0x3f, r0	; 63
    1a72:	cd bf       	out	0x3d, r28	; 61
    1a74:	cf 91       	pop	r28
    1a76:	df 91       	pop	r29
    1a78:	08 95       	ret

00001a7a <ADC_vStartConversion>:



void ADC_vStartConversion(Uchar8_t Copy_Uchar8_tAdcChannel)
{
    1a7a:	df 93       	push	r29
    1a7c:	cf 93       	push	r28
    1a7e:	00 d0       	rcall	.+0      	; 0x1a80 <ADC_vStartConversion+0x6>
    1a80:	0f 92       	push	r0
    1a82:	cd b7       	in	r28, 0x3d	; 61
    1a84:	de b7       	in	r29, 0x3e	; 62
    1a86:	89 83       	std	Y+1, r24	; 0x01

	switch(Copy_Uchar8_tAdcChannel)
    1a88:	89 81       	ldd	r24, Y+1	; 0x01
    1a8a:	28 2f       	mov	r18, r24
    1a8c:	30 e0       	ldi	r19, 0x00	; 0
    1a8e:	3b 83       	std	Y+3, r19	; 0x03
    1a90:	2a 83       	std	Y+2, r18	; 0x02
    1a92:	8a 81       	ldd	r24, Y+2	; 0x02
    1a94:	9b 81       	ldd	r25, Y+3	; 0x03
    1a96:	83 30       	cpi	r24, 0x03	; 3
    1a98:	91 05       	cpc	r25, r1
    1a9a:	09 f4       	brne	.+2      	; 0x1a9e <ADC_vStartConversion+0x24>
    1a9c:	45 c0       	rjmp	.+138    	; 0x1b28 <ADC_vStartConversion+0xae>
    1a9e:	2a 81       	ldd	r18, Y+2	; 0x02
    1aa0:	3b 81       	ldd	r19, Y+3	; 0x03
    1aa2:	24 30       	cpi	r18, 0x04	; 4
    1aa4:	31 05       	cpc	r19, r1
    1aa6:	7c f4       	brge	.+30     	; 0x1ac6 <ADC_vStartConversion+0x4c>
    1aa8:	8a 81       	ldd	r24, Y+2	; 0x02
    1aaa:	9b 81       	ldd	r25, Y+3	; 0x03
    1aac:	81 30       	cpi	r24, 0x01	; 1
    1aae:	91 05       	cpc	r25, r1
    1ab0:	49 f1       	breq	.+82     	; 0x1b04 <ADC_vStartConversion+0x8a>
    1ab2:	2a 81       	ldd	r18, Y+2	; 0x02
    1ab4:	3b 81       	ldd	r19, Y+3	; 0x03
    1ab6:	22 30       	cpi	r18, 0x02	; 2
    1ab8:	31 05       	cpc	r19, r1
    1aba:	6c f5       	brge	.+90     	; 0x1b16 <ADC_vStartConversion+0x9c>
    1abc:	8a 81       	ldd	r24, Y+2	; 0x02
    1abe:	9b 81       	ldd	r25, Y+3	; 0x03
    1ac0:	00 97       	sbiw	r24, 0x00	; 0
    1ac2:	c1 f0       	breq	.+48     	; 0x1af4 <ADC_vStartConversion+0x7a>
    1ac4:	5d c0       	rjmp	.+186    	; 0x1b80 <ADC_vStartConversion+0x106>
    1ac6:	2a 81       	ldd	r18, Y+2	; 0x02
    1ac8:	3b 81       	ldd	r19, Y+3	; 0x03
    1aca:	25 30       	cpi	r18, 0x05	; 5
    1acc:	31 05       	cpc	r19, r1
    1ace:	09 f4       	brne	.+2      	; 0x1ad2 <ADC_vStartConversion+0x58>
    1ad0:	3d c0       	rjmp	.+122    	; 0x1b4c <ADC_vStartConversion+0xd2>
    1ad2:	8a 81       	ldd	r24, Y+2	; 0x02
    1ad4:	9b 81       	ldd	r25, Y+3	; 0x03
    1ad6:	85 30       	cpi	r24, 0x05	; 5
    1ad8:	91 05       	cpc	r25, r1
    1ada:	7c f1       	brlt	.+94     	; 0x1b3a <ADC_vStartConversion+0xc0>
    1adc:	2a 81       	ldd	r18, Y+2	; 0x02
    1ade:	3b 81       	ldd	r19, Y+3	; 0x03
    1ae0:	26 30       	cpi	r18, 0x06	; 6
    1ae2:	31 05       	cpc	r19, r1
    1ae4:	e1 f1       	breq	.+120    	; 0x1b5e <ADC_vStartConversion+0xe4>
    1ae6:	8a 81       	ldd	r24, Y+2	; 0x02
    1ae8:	9b 81       	ldd	r25, Y+3	; 0x03
    1aea:	87 30       	cpi	r24, 0x07	; 7
    1aec:	91 05       	cpc	r25, r1
    1aee:	09 f4       	brne	.+2      	; 0x1af2 <ADC_vStartConversion+0x78>
    1af0:	3f c0       	rjmp	.+126    	; 0x1b70 <ADC_vStartConversion+0xf6>
    1af2:	46 c0       	rjmp	.+140    	; 0x1b80 <ADC_vStartConversion+0x106>
	{
	case ADC_PIN0:
	{
		ADMUX_REG = (ADMUX_REG & 0xE0) | (ADC_CH0 & 0x1F);
    1af4:	a7 e2       	ldi	r26, 0x27	; 39
    1af6:	b0 e0       	ldi	r27, 0x00	; 0
    1af8:	e7 e2       	ldi	r30, 0x27	; 39
    1afa:	f0 e0       	ldi	r31, 0x00	; 0
    1afc:	80 81       	ld	r24, Z
    1afe:	80 7e       	andi	r24, 0xE0	; 224
    1b00:	8c 93       	st	X, r24
    1b02:	3e c0       	rjmp	.+124    	; 0x1b80 <ADC_vStartConversion+0x106>
		break;
	}
	case ADC_PIN1:
	{
		ADMUX_REG = (ADMUX_REG & 0xE0) | (ADC_CH1 & 0x1F);
    1b04:	a7 e2       	ldi	r26, 0x27	; 39
    1b06:	b0 e0       	ldi	r27, 0x00	; 0
    1b08:	e7 e2       	ldi	r30, 0x27	; 39
    1b0a:	f0 e0       	ldi	r31, 0x00	; 0
    1b0c:	80 81       	ld	r24, Z
    1b0e:	80 7e       	andi	r24, 0xE0	; 224
    1b10:	81 60       	ori	r24, 0x01	; 1
    1b12:	8c 93       	st	X, r24
    1b14:	35 c0       	rjmp	.+106    	; 0x1b80 <ADC_vStartConversion+0x106>
		break;
	}
	case ADC_PIN2:
	{
		ADMUX_REG = (ADMUX_REG & 0xE0) | (ADC_CH2 & 0x1F);
    1b16:	a7 e2       	ldi	r26, 0x27	; 39
    1b18:	b0 e0       	ldi	r27, 0x00	; 0
    1b1a:	e7 e2       	ldi	r30, 0x27	; 39
    1b1c:	f0 e0       	ldi	r31, 0x00	; 0
    1b1e:	80 81       	ld	r24, Z
    1b20:	80 7e       	andi	r24, 0xE0	; 224
    1b22:	82 60       	ori	r24, 0x02	; 2
    1b24:	8c 93       	st	X, r24
    1b26:	2c c0       	rjmp	.+88     	; 0x1b80 <ADC_vStartConversion+0x106>
		break;
	}
	case ADC_PIN3:
	{
		ADMUX_REG = (ADMUX_REG & 0xE0) | (ADC_CH3 & 0x1F);
    1b28:	a7 e2       	ldi	r26, 0x27	; 39
    1b2a:	b0 e0       	ldi	r27, 0x00	; 0
    1b2c:	e7 e2       	ldi	r30, 0x27	; 39
    1b2e:	f0 e0       	ldi	r31, 0x00	; 0
    1b30:	80 81       	ld	r24, Z
    1b32:	80 7e       	andi	r24, 0xE0	; 224
    1b34:	83 60       	ori	r24, 0x03	; 3
    1b36:	8c 93       	st	X, r24
    1b38:	23 c0       	rjmp	.+70     	; 0x1b80 <ADC_vStartConversion+0x106>
		break;
	}
	case ADC_PIN4:
	{
		ADMUX_REG = (ADMUX_REG & 0xE0) | (ADC_CH4 & 0x1F);
    1b3a:	a7 e2       	ldi	r26, 0x27	; 39
    1b3c:	b0 e0       	ldi	r27, 0x00	; 0
    1b3e:	e7 e2       	ldi	r30, 0x27	; 39
    1b40:	f0 e0       	ldi	r31, 0x00	; 0
    1b42:	80 81       	ld	r24, Z
    1b44:	80 7e       	andi	r24, 0xE0	; 224
    1b46:	84 60       	ori	r24, 0x04	; 4
    1b48:	8c 93       	st	X, r24
    1b4a:	1a c0       	rjmp	.+52     	; 0x1b80 <ADC_vStartConversion+0x106>
		break;
	}
	case ADC_PIN5:
	{
		ADMUX_REG = (ADMUX_REG & 0xE0) | (ADC_CH5 & 0x1F);
    1b4c:	a7 e2       	ldi	r26, 0x27	; 39
    1b4e:	b0 e0       	ldi	r27, 0x00	; 0
    1b50:	e7 e2       	ldi	r30, 0x27	; 39
    1b52:	f0 e0       	ldi	r31, 0x00	; 0
    1b54:	80 81       	ld	r24, Z
    1b56:	80 7e       	andi	r24, 0xE0	; 224
    1b58:	85 60       	ori	r24, 0x05	; 5
    1b5a:	8c 93       	st	X, r24
    1b5c:	11 c0       	rjmp	.+34     	; 0x1b80 <ADC_vStartConversion+0x106>
		break;
	}
	case ADC_PIN6:
	{
		ADMUX_REG = (ADMUX_REG & 0xE0) | (ADC_CH6 & 0x1F);
    1b5e:	a7 e2       	ldi	r26, 0x27	; 39
    1b60:	b0 e0       	ldi	r27, 0x00	; 0
    1b62:	e7 e2       	ldi	r30, 0x27	; 39
    1b64:	f0 e0       	ldi	r31, 0x00	; 0
    1b66:	80 81       	ld	r24, Z
    1b68:	80 7e       	andi	r24, 0xE0	; 224
    1b6a:	86 60       	ori	r24, 0x06	; 6
    1b6c:	8c 93       	st	X, r24
    1b6e:	08 c0       	rjmp	.+16     	; 0x1b80 <ADC_vStartConversion+0x106>
		break;
	}
	case ADC_PIN7:
	{
		ADMUX_REG = (ADMUX_REG & 0xE0) | (ADC_CH7 & 0x1F);
    1b70:	a7 e2       	ldi	r26, 0x27	; 39
    1b72:	b0 e0       	ldi	r27, 0x00	; 0
    1b74:	e7 e2       	ldi	r30, 0x27	; 39
    1b76:	f0 e0       	ldi	r31, 0x00	; 0
    1b78:	80 81       	ld	r24, Z
    1b7a:	80 7e       	andi	r24, 0xE0	; 224
    1b7c:	87 60       	ori	r24, 0x07	; 7
    1b7e:	8c 93       	st	X, r24
		break;
	}
	}

	SET_BIT(ADCSRA_REG,ADCSRA_REG_ADSC_BIT);
    1b80:	a6 e2       	ldi	r26, 0x26	; 38
    1b82:	b0 e0       	ldi	r27, 0x00	; 0
    1b84:	e6 e2       	ldi	r30, 0x26	; 38
    1b86:	f0 e0       	ldi	r31, 0x00	; 0
    1b88:	80 81       	ld	r24, Z
    1b8a:	80 64       	ori	r24, 0x40	; 64
    1b8c:	8c 93       	st	X, r24
}
    1b8e:	0f 90       	pop	r0
    1b90:	0f 90       	pop	r0
    1b92:	0f 90       	pop	r0
    1b94:	cf 91       	pop	r28
    1b96:	df 91       	pop	r29
    1b98:	08 95       	ret

00001b9a <ADC_vInterruptState>:

void ADC_vInterruptState(Uchar8_t Copy_Uchar8_tIntState)
{
    1b9a:	df 93       	push	r29
    1b9c:	cf 93       	push	r28
    1b9e:	00 d0       	rcall	.+0      	; 0x1ba0 <ADC_vInterruptState+0x6>
    1ba0:	0f 92       	push	r0
    1ba2:	cd b7       	in	r28, 0x3d	; 61
    1ba4:	de b7       	in	r29, 0x3e	; 62
    1ba6:	89 83       	std	Y+1, r24	; 0x01
	switch(Copy_Uchar8_tIntState)
    1ba8:	89 81       	ldd	r24, Y+1	; 0x01
    1baa:	28 2f       	mov	r18, r24
    1bac:	30 e0       	ldi	r19, 0x00	; 0
    1bae:	3b 83       	std	Y+3, r19	; 0x03
    1bb0:	2a 83       	std	Y+2, r18	; 0x02
    1bb2:	8a 81       	ldd	r24, Y+2	; 0x02
    1bb4:	9b 81       	ldd	r25, Y+3	; 0x03
    1bb6:	00 97       	sbiw	r24, 0x00	; 0
    1bb8:	69 f0       	breq	.+26     	; 0x1bd4 <ADC_vInterruptState+0x3a>
    1bba:	2a 81       	ldd	r18, Y+2	; 0x02
    1bbc:	3b 81       	ldd	r19, Y+3	; 0x03
    1bbe:	21 30       	cpi	r18, 0x01	; 1
    1bc0:	31 05       	cpc	r19, r1
    1bc2:	79 f4       	brne	.+30     	; 0x1be2 <ADC_vInterruptState+0x48>
	{
	case ADC_ENABLE:
	{
		SET_BIT(ADCSRA_REG,ADCSRA_REG_ADIE_BIT);
    1bc4:	a6 e2       	ldi	r26, 0x26	; 38
    1bc6:	b0 e0       	ldi	r27, 0x00	; 0
    1bc8:	e6 e2       	ldi	r30, 0x26	; 38
    1bca:	f0 e0       	ldi	r31, 0x00	; 0
    1bcc:	80 81       	ld	r24, Z
    1bce:	88 60       	ori	r24, 0x08	; 8
    1bd0:	8c 93       	st	X, r24
    1bd2:	07 c0       	rjmp	.+14     	; 0x1be2 <ADC_vInterruptState+0x48>
		break;
	}
	case ADC_DISABLE:
	{
		CLEAR_BIT(ADCSRA_REG,ADCSRA_REG_ADIE_BIT);
    1bd4:	a6 e2       	ldi	r26, 0x26	; 38
    1bd6:	b0 e0       	ldi	r27, 0x00	; 0
    1bd8:	e6 e2       	ldi	r30, 0x26	; 38
    1bda:	f0 e0       	ldi	r31, 0x00	; 0
    1bdc:	80 81       	ld	r24, Z
    1bde:	87 7f       	andi	r24, 0xF7	; 247
    1be0:	8c 93       	st	X, r24
		break;
	}
	}
}
    1be2:	0f 90       	pop	r0
    1be4:	0f 90       	pop	r0
    1be6:	0f 90       	pop	r0
    1be8:	cf 91       	pop	r28
    1bea:	df 91       	pop	r29
    1bec:	08 95       	ret

00001bee <ADC_Uchar16_tReadConvertedData>:

Uint16_t ADC_Uchar16_tReadConvertedData(Uchar8_t Copy_Uchar8_tAdcChannel)
{
    1bee:	df 93       	push	r29
    1bf0:	cf 93       	push	r28
    1bf2:	00 d0       	rcall	.+0      	; 0x1bf4 <ADC_Uchar16_tReadConvertedData+0x6>
    1bf4:	0f 92       	push	r0
    1bf6:	cd b7       	in	r28, 0x3d	; 61
    1bf8:	de b7       	in	r29, 0x3e	; 62
    1bfa:	89 83       	std	Y+1, r24	; 0x01
	switch(Copy_Uchar8_tAdcChannel)
    1bfc:	89 81       	ldd	r24, Y+1	; 0x01
    1bfe:	28 2f       	mov	r18, r24
    1c00:	30 e0       	ldi	r19, 0x00	; 0
    1c02:	3b 83       	std	Y+3, r19	; 0x03
    1c04:	2a 83       	std	Y+2, r18	; 0x02
    1c06:	8a 81       	ldd	r24, Y+2	; 0x02
    1c08:	9b 81       	ldd	r25, Y+3	; 0x03
    1c0a:	83 30       	cpi	r24, 0x03	; 3
    1c0c:	91 05       	cpc	r25, r1
    1c0e:	09 f4       	brne	.+2      	; 0x1c12 <ADC_Uchar16_tReadConvertedData+0x24>
    1c10:	45 c0       	rjmp	.+138    	; 0x1c9c <ADC_Uchar16_tReadConvertedData+0xae>
    1c12:	2a 81       	ldd	r18, Y+2	; 0x02
    1c14:	3b 81       	ldd	r19, Y+3	; 0x03
    1c16:	24 30       	cpi	r18, 0x04	; 4
    1c18:	31 05       	cpc	r19, r1
    1c1a:	7c f4       	brge	.+30     	; 0x1c3a <ADC_Uchar16_tReadConvertedData+0x4c>
    1c1c:	8a 81       	ldd	r24, Y+2	; 0x02
    1c1e:	9b 81       	ldd	r25, Y+3	; 0x03
    1c20:	81 30       	cpi	r24, 0x01	; 1
    1c22:	91 05       	cpc	r25, r1
    1c24:	49 f1       	breq	.+82     	; 0x1c78 <ADC_Uchar16_tReadConvertedData+0x8a>
    1c26:	2a 81       	ldd	r18, Y+2	; 0x02
    1c28:	3b 81       	ldd	r19, Y+3	; 0x03
    1c2a:	22 30       	cpi	r18, 0x02	; 2
    1c2c:	31 05       	cpc	r19, r1
    1c2e:	6c f5       	brge	.+90     	; 0x1c8a <ADC_Uchar16_tReadConvertedData+0x9c>
    1c30:	8a 81       	ldd	r24, Y+2	; 0x02
    1c32:	9b 81       	ldd	r25, Y+3	; 0x03
    1c34:	00 97       	sbiw	r24, 0x00	; 0
    1c36:	c1 f0       	breq	.+48     	; 0x1c68 <ADC_Uchar16_tReadConvertedData+0x7a>
    1c38:	5d c0       	rjmp	.+186    	; 0x1cf4 <ADC_Uchar16_tReadConvertedData+0x106>
    1c3a:	2a 81       	ldd	r18, Y+2	; 0x02
    1c3c:	3b 81       	ldd	r19, Y+3	; 0x03
    1c3e:	25 30       	cpi	r18, 0x05	; 5
    1c40:	31 05       	cpc	r19, r1
    1c42:	09 f4       	brne	.+2      	; 0x1c46 <ADC_Uchar16_tReadConvertedData+0x58>
    1c44:	3d c0       	rjmp	.+122    	; 0x1cc0 <ADC_Uchar16_tReadConvertedData+0xd2>
    1c46:	8a 81       	ldd	r24, Y+2	; 0x02
    1c48:	9b 81       	ldd	r25, Y+3	; 0x03
    1c4a:	85 30       	cpi	r24, 0x05	; 5
    1c4c:	91 05       	cpc	r25, r1
    1c4e:	7c f1       	brlt	.+94     	; 0x1cae <ADC_Uchar16_tReadConvertedData+0xc0>
    1c50:	2a 81       	ldd	r18, Y+2	; 0x02
    1c52:	3b 81       	ldd	r19, Y+3	; 0x03
    1c54:	26 30       	cpi	r18, 0x06	; 6
    1c56:	31 05       	cpc	r19, r1
    1c58:	e1 f1       	breq	.+120    	; 0x1cd2 <ADC_Uchar16_tReadConvertedData+0xe4>
    1c5a:	8a 81       	ldd	r24, Y+2	; 0x02
    1c5c:	9b 81       	ldd	r25, Y+3	; 0x03
    1c5e:	87 30       	cpi	r24, 0x07	; 7
    1c60:	91 05       	cpc	r25, r1
    1c62:	09 f4       	brne	.+2      	; 0x1c66 <ADC_Uchar16_tReadConvertedData+0x78>
    1c64:	3f c0       	rjmp	.+126    	; 0x1ce4 <ADC_Uchar16_tReadConvertedData+0xf6>
    1c66:	46 c0       	rjmp	.+140    	; 0x1cf4 <ADC_Uchar16_tReadConvertedData+0x106>
	{
	case ADC_PIN0:
	{
		ADMUX_REG = (ADMUX_REG & 0xE0) | (ADC_CH0 & 0x1F);
    1c68:	a7 e2       	ldi	r26, 0x27	; 39
    1c6a:	b0 e0       	ldi	r27, 0x00	; 0
    1c6c:	e7 e2       	ldi	r30, 0x27	; 39
    1c6e:	f0 e0       	ldi	r31, 0x00	; 0
    1c70:	80 81       	ld	r24, Z
    1c72:	80 7e       	andi	r24, 0xE0	; 224
    1c74:	8c 93       	st	X, r24
    1c76:	3e c0       	rjmp	.+124    	; 0x1cf4 <ADC_Uchar16_tReadConvertedData+0x106>
		break;
	}
	case ADC_PIN1:
	{
		ADMUX_REG = (ADMUX_REG & 0xE0) | (ADC_CH1 & 0x1F);
    1c78:	a7 e2       	ldi	r26, 0x27	; 39
    1c7a:	b0 e0       	ldi	r27, 0x00	; 0
    1c7c:	e7 e2       	ldi	r30, 0x27	; 39
    1c7e:	f0 e0       	ldi	r31, 0x00	; 0
    1c80:	80 81       	ld	r24, Z
    1c82:	80 7e       	andi	r24, 0xE0	; 224
    1c84:	81 60       	ori	r24, 0x01	; 1
    1c86:	8c 93       	st	X, r24
    1c88:	35 c0       	rjmp	.+106    	; 0x1cf4 <ADC_Uchar16_tReadConvertedData+0x106>
		break;
	}
	case ADC_PIN2:
	{
		ADMUX_REG = (ADMUX_REG & 0xE0) | (ADC_CH2 & 0x1F);
    1c8a:	a7 e2       	ldi	r26, 0x27	; 39
    1c8c:	b0 e0       	ldi	r27, 0x00	; 0
    1c8e:	e7 e2       	ldi	r30, 0x27	; 39
    1c90:	f0 e0       	ldi	r31, 0x00	; 0
    1c92:	80 81       	ld	r24, Z
    1c94:	80 7e       	andi	r24, 0xE0	; 224
    1c96:	82 60       	ori	r24, 0x02	; 2
    1c98:	8c 93       	st	X, r24
    1c9a:	2c c0       	rjmp	.+88     	; 0x1cf4 <ADC_Uchar16_tReadConvertedData+0x106>
		break;
	}
	case ADC_PIN3:
	{
		ADMUX_REG = (ADMUX_REG & 0xE0) | (ADC_CH3 & 0x1F);
    1c9c:	a7 e2       	ldi	r26, 0x27	; 39
    1c9e:	b0 e0       	ldi	r27, 0x00	; 0
    1ca0:	e7 e2       	ldi	r30, 0x27	; 39
    1ca2:	f0 e0       	ldi	r31, 0x00	; 0
    1ca4:	80 81       	ld	r24, Z
    1ca6:	80 7e       	andi	r24, 0xE0	; 224
    1ca8:	83 60       	ori	r24, 0x03	; 3
    1caa:	8c 93       	st	X, r24
    1cac:	23 c0       	rjmp	.+70     	; 0x1cf4 <ADC_Uchar16_tReadConvertedData+0x106>
		break;
	}
	case ADC_PIN4:
	{
		ADMUX_REG = (ADMUX_REG & 0xE0) | (ADC_CH4 & 0x1F);
    1cae:	a7 e2       	ldi	r26, 0x27	; 39
    1cb0:	b0 e0       	ldi	r27, 0x00	; 0
    1cb2:	e7 e2       	ldi	r30, 0x27	; 39
    1cb4:	f0 e0       	ldi	r31, 0x00	; 0
    1cb6:	80 81       	ld	r24, Z
    1cb8:	80 7e       	andi	r24, 0xE0	; 224
    1cba:	84 60       	ori	r24, 0x04	; 4
    1cbc:	8c 93       	st	X, r24
    1cbe:	1a c0       	rjmp	.+52     	; 0x1cf4 <ADC_Uchar16_tReadConvertedData+0x106>
		break;
	}
	case ADC_PIN5:
	{
		ADMUX_REG = (ADMUX_REG & 0xE0) | (ADC_CH5 & 0x1F);
    1cc0:	a7 e2       	ldi	r26, 0x27	; 39
    1cc2:	b0 e0       	ldi	r27, 0x00	; 0
    1cc4:	e7 e2       	ldi	r30, 0x27	; 39
    1cc6:	f0 e0       	ldi	r31, 0x00	; 0
    1cc8:	80 81       	ld	r24, Z
    1cca:	80 7e       	andi	r24, 0xE0	; 224
    1ccc:	85 60       	ori	r24, 0x05	; 5
    1cce:	8c 93       	st	X, r24
    1cd0:	11 c0       	rjmp	.+34     	; 0x1cf4 <ADC_Uchar16_tReadConvertedData+0x106>
		break;
	}
	case ADC_PIN6:
	{
		ADMUX_REG = (ADMUX_REG & 0xE0) | (ADC_CH6 & 0x1F);
    1cd2:	a7 e2       	ldi	r26, 0x27	; 39
    1cd4:	b0 e0       	ldi	r27, 0x00	; 0
    1cd6:	e7 e2       	ldi	r30, 0x27	; 39
    1cd8:	f0 e0       	ldi	r31, 0x00	; 0
    1cda:	80 81       	ld	r24, Z
    1cdc:	80 7e       	andi	r24, 0xE0	; 224
    1cde:	86 60       	ori	r24, 0x06	; 6
    1ce0:	8c 93       	st	X, r24
    1ce2:	08 c0       	rjmp	.+16     	; 0x1cf4 <ADC_Uchar16_tReadConvertedData+0x106>
		break;
	}
	case ADC_PIN7:
	{
		ADMUX_REG = (ADMUX_REG & 0xE0) | (ADC_CH7 & 0x1F);
    1ce4:	a7 e2       	ldi	r26, 0x27	; 39
    1ce6:	b0 e0       	ldi	r27, 0x00	; 0
    1ce8:	e7 e2       	ldi	r30, 0x27	; 39
    1cea:	f0 e0       	ldi	r31, 0x00	; 0
    1cec:	80 81       	ld	r24, Z
    1cee:	80 7e       	andi	r24, 0xE0	; 224
    1cf0:	87 60       	ori	r24, 0x07	; 7
    1cf2:	8c 93       	st	X, r24
		break;
	}
	}
	while(GET_BIT(ADCSRA_REG,ADCSRA_REG_ADIF_BIT) != 1)
    1cf4:	e6 e2       	ldi	r30, 0x26	; 38
    1cf6:	f0 e0       	ldi	r31, 0x00	; 0
    1cf8:	80 81       	ld	r24, Z
    1cfa:	82 95       	swap	r24
    1cfc:	8f 70       	andi	r24, 0x0F	; 15
    1cfe:	88 2f       	mov	r24, r24
    1d00:	90 e0       	ldi	r25, 0x00	; 0
    1d02:	81 70       	andi	r24, 0x01	; 1
    1d04:	90 70       	andi	r25, 0x00	; 0
    1d06:	00 97       	sbiw	r24, 0x00	; 0
    1d08:	a9 f3       	breq	.-22     	; 0x1cf4 <ADC_Uchar16_tReadConvertedData+0x106>
	{

	}

	CLEAR_BIT(ADCSRA_REG,ADCSRA_REG_ADIF_BIT);
    1d0a:	a6 e2       	ldi	r26, 0x26	; 38
    1d0c:	b0 e0       	ldi	r27, 0x00	; 0
    1d0e:	e6 e2       	ldi	r30, 0x26	; 38
    1d10:	f0 e0       	ldi	r31, 0x00	; 0
    1d12:	80 81       	ld	r24, Z
    1d14:	8f 7e       	andi	r24, 0xEF	; 239
    1d16:	8c 93       	st	X, r24

	return ADC_DATA;
    1d18:	e4 e2       	ldi	r30, 0x24	; 36
    1d1a:	f0 e0       	ldi	r31, 0x00	; 0
    1d1c:	80 81       	ld	r24, Z
    1d1e:	91 81       	ldd	r25, Z+1	; 0x01
}
    1d20:	0f 90       	pop	r0
    1d22:	0f 90       	pop	r0
    1d24:	0f 90       	pop	r0
    1d26:	cf 91       	pop	r28
    1d28:	df 91       	pop	r29
    1d2a:	08 95       	ret

00001d2c <LCD_vInit>:
#include"../../MCAL/DIO/DIO_Interface.h"
#include"LCD_Interface.h"
#define	F_CPU 8000000UL

void LCD_vInit(void)
{
    1d2c:	df 93       	push	r29
    1d2e:	cf 93       	push	r28
    1d30:	cd b7       	in	r28, 0x3d	; 61
    1d32:	de b7       	in	r29, 0x3e	; 62
    1d34:	e8 97       	sbiw	r28, 0x38	; 56
    1d36:	0f b6       	in	r0, 0x3f	; 63
    1d38:	f8 94       	cli
    1d3a:	de bf       	out	0x3e, r29	; 62
    1d3c:	0f be       	out	0x3f, r0	; 63
    1d3e:	cd bf       	out	0x3d, r28	; 61

	DIO_vSetGroupPinDir(LCD_DATA_PORT,OUTPUT);
    1d40:	84 e0       	ldi	r24, 0x04	; 4
    1d42:	61 e0       	ldi	r22, 0x01	; 1
    1d44:	0e 94 77 08 	call	0x10ee	; 0x10ee <DIO_vSetGroupPinDir>

	DIO_vSetPinDir(LCD_CTRL_PORT,PIN_RS,OUTPUT);
    1d48:	83 e0       	ldi	r24, 0x03	; 3
    1d4a:	60 e0       	ldi	r22, 0x00	; 0
    1d4c:	41 e0       	ldi	r20, 0x01	; 1
    1d4e:	0e 94 f9 05 	call	0xbf2	; 0xbf2 <DIO_vSetPinDir>
	DIO_vSetPinDir(LCD_CTRL_PORT,PIN_RW,OUTPUT);
    1d52:	83 e0       	ldi	r24, 0x03	; 3
    1d54:	61 e0       	ldi	r22, 0x01	; 1
    1d56:	41 e0       	ldi	r20, 0x01	; 1
    1d58:	0e 94 f9 05 	call	0xbf2	; 0xbf2 <DIO_vSetPinDir>
	DIO_vSetPinDir(LCD_CTRL_PORT,PIN_EN,OUTPUT);
    1d5c:	83 e0       	ldi	r24, 0x03	; 3
    1d5e:	62 e0       	ldi	r22, 0x02	; 2
    1d60:	41 e0       	ldi	r20, 0x01	; 1
    1d62:	0e 94 f9 05 	call	0xbf2	; 0xbf2 <DIO_vSetPinDir>
    1d66:	80 e0       	ldi	r24, 0x00	; 0
    1d68:	90 e0       	ldi	r25, 0x00	; 0
    1d6a:	a8 e4       	ldi	r26, 0x48	; 72
    1d6c:	b2 e4       	ldi	r27, 0x42	; 66
    1d6e:	8d ab       	std	Y+53, r24	; 0x35
    1d70:	9e ab       	std	Y+54, r25	; 0x36
    1d72:	af ab       	std	Y+55, r26	; 0x37
    1d74:	b8 af       	std	Y+56, r27	; 0x38
 */
void
_delay_ms(double __ms)
{
	uint16_t __ticks;
	double __tmp = ((F_CPU) / 4e3) * __ms;
    1d76:	6d a9       	ldd	r22, Y+53	; 0x35
    1d78:	7e a9       	ldd	r23, Y+54	; 0x36
    1d7a:	8f a9       	ldd	r24, Y+55	; 0x37
    1d7c:	98 ad       	ldd	r25, Y+56	; 0x38
    1d7e:	20 e0       	ldi	r18, 0x00	; 0
    1d80:	30 e0       	ldi	r19, 0x00	; 0
    1d82:	4a ef       	ldi	r20, 0xFA	; 250
    1d84:	54 e4       	ldi	r21, 0x44	; 68
    1d86:	0e 94 17 02 	call	0x42e	; 0x42e <__mulsf3>
    1d8a:	dc 01       	movw	r26, r24
    1d8c:	cb 01       	movw	r24, r22
    1d8e:	89 ab       	std	Y+49, r24	; 0x31
    1d90:	9a ab       	std	Y+50, r25	; 0x32
    1d92:	ab ab       	std	Y+51, r26	; 0x33
    1d94:	bc ab       	std	Y+52, r27	; 0x34
	if (__tmp < 1.0)
    1d96:	69 a9       	ldd	r22, Y+49	; 0x31
    1d98:	7a a9       	ldd	r23, Y+50	; 0x32
    1d9a:	8b a9       	ldd	r24, Y+51	; 0x33
    1d9c:	9c a9       	ldd	r25, Y+52	; 0x34
    1d9e:	20 e0       	ldi	r18, 0x00	; 0
    1da0:	30 e0       	ldi	r19, 0x00	; 0
    1da2:	40 e8       	ldi	r20, 0x80	; 128
    1da4:	5f e3       	ldi	r21, 0x3F	; 63
    1da6:	0e 94 71 03 	call	0x6e2	; 0x6e2 <__ltsf2>
    1daa:	88 23       	and	r24, r24
    1dac:	2c f4       	brge	.+10     	; 0x1db8 <LCD_vInit+0x8c>
		__ticks = 1;
    1dae:	81 e0       	ldi	r24, 0x01	; 1
    1db0:	90 e0       	ldi	r25, 0x00	; 0
    1db2:	98 ab       	std	Y+48, r25	; 0x30
    1db4:	8f a7       	std	Y+47, r24	; 0x2f
    1db6:	3f c0       	rjmp	.+126    	; 0x1e36 <LCD_vInit+0x10a>
	else if (__tmp > 65535)
    1db8:	69 a9       	ldd	r22, Y+49	; 0x31
    1dba:	7a a9       	ldd	r23, Y+50	; 0x32
    1dbc:	8b a9       	ldd	r24, Y+51	; 0x33
    1dbe:	9c a9       	ldd	r25, Y+52	; 0x34
    1dc0:	20 e0       	ldi	r18, 0x00	; 0
    1dc2:	3f ef       	ldi	r19, 0xFF	; 255
    1dc4:	4f e7       	ldi	r20, 0x7F	; 127
    1dc6:	57 e4       	ldi	r21, 0x47	; 71
    1dc8:	0e 94 11 03 	call	0x622	; 0x622 <__gtsf2>
    1dcc:	18 16       	cp	r1, r24
    1dce:	4c f5       	brge	.+82     	; 0x1e22 <LCD_vInit+0xf6>
	{
		//	__ticks = requested delay in 1/10 ms
		__ticks = (uint16_t) (__ms * 10.0);
    1dd0:	6d a9       	ldd	r22, Y+53	; 0x35
    1dd2:	7e a9       	ldd	r23, Y+54	; 0x36
    1dd4:	8f a9       	ldd	r24, Y+55	; 0x37
    1dd6:	98 ad       	ldd	r25, Y+56	; 0x38
    1dd8:	20 e0       	ldi	r18, 0x00	; 0
    1dda:	30 e0       	ldi	r19, 0x00	; 0
    1ddc:	40 e2       	ldi	r20, 0x20	; 32
    1dde:	51 e4       	ldi	r21, 0x41	; 65
    1de0:	0e 94 17 02 	call	0x42e	; 0x42e <__mulsf3>
    1de4:	dc 01       	movw	r26, r24
    1de6:	cb 01       	movw	r24, r22
    1de8:	bc 01       	movw	r22, r24
    1dea:	cd 01       	movw	r24, r26
    1dec:	0e 94 41 00 	call	0x82	; 0x82 <__fixunssfsi>
    1df0:	dc 01       	movw	r26, r24
    1df2:	cb 01       	movw	r24, r22
    1df4:	98 ab       	std	Y+48, r25	; 0x30
    1df6:	8f a7       	std	Y+47, r24	; 0x2f
    1df8:	0f c0       	rjmp	.+30     	; 0x1e18 <LCD_vInit+0xec>
    1dfa:	88 ec       	ldi	r24, 0xC8	; 200
    1dfc:	90 e0       	ldi	r25, 0x00	; 0
    1dfe:	9e a7       	std	Y+46, r25	; 0x2e
    1e00:	8d a7       	std	Y+45, r24	; 0x2d
    milliseconds can be achieved.
 */
void
_delay_loop_2(uint16_t __count)
{
	__asm__ volatile (
    1e02:	8d a5       	ldd	r24, Y+45	; 0x2d
    1e04:	9e a5       	ldd	r25, Y+46	; 0x2e
    1e06:	01 97       	sbiw	r24, 0x01	; 1
    1e08:	f1 f7       	brne	.-4      	; 0x1e06 <LCD_vInit+0xda>
    1e0a:	9e a7       	std	Y+46, r25	; 0x2e
    1e0c:	8d a7       	std	Y+45, r24	; 0x2d
		while(__ticks)
		{
			// wait 1/10 ms
			_delay_loop_2(((F_CPU) / 4e3) / 10);
			__ticks --;
    1e0e:	8f a5       	ldd	r24, Y+47	; 0x2f
    1e10:	98 a9       	ldd	r25, Y+48	; 0x30
    1e12:	01 97       	sbiw	r24, 0x01	; 1
    1e14:	98 ab       	std	Y+48, r25	; 0x30
    1e16:	8f a7       	std	Y+47, r24	; 0x2f
		__ticks = 1;
	else if (__tmp > 65535)
	{
		//	__ticks = requested delay in 1/10 ms
		__ticks = (uint16_t) (__ms * 10.0);
		while(__ticks)
    1e18:	8f a5       	ldd	r24, Y+47	; 0x2f
    1e1a:	98 a9       	ldd	r25, Y+48	; 0x30
    1e1c:	00 97       	sbiw	r24, 0x00	; 0
    1e1e:	69 f7       	brne	.-38     	; 0x1dfa <LCD_vInit+0xce>
    1e20:	14 c0       	rjmp	.+40     	; 0x1e4a <LCD_vInit+0x11e>
			__ticks --;
		}
		return;
	}
	else
		__ticks = (uint16_t)__tmp;
    1e22:	69 a9       	ldd	r22, Y+49	; 0x31
    1e24:	7a a9       	ldd	r23, Y+50	; 0x32
    1e26:	8b a9       	ldd	r24, Y+51	; 0x33
    1e28:	9c a9       	ldd	r25, Y+52	; 0x34
    1e2a:	0e 94 41 00 	call	0x82	; 0x82 <__fixunssfsi>
    1e2e:	dc 01       	movw	r26, r24
    1e30:	cb 01       	movw	r24, r22
    1e32:	98 ab       	std	Y+48, r25	; 0x30
    1e34:	8f a7       	std	Y+47, r24	; 0x2f
    1e36:	8f a5       	ldd	r24, Y+47	; 0x2f
    1e38:	98 a9       	ldd	r25, Y+48	; 0x30
    1e3a:	9c a7       	std	Y+44, r25	; 0x2c
    1e3c:	8b a7       	std	Y+43, r24	; 0x2b
    1e3e:	8b a5       	ldd	r24, Y+43	; 0x2b
    1e40:	9c a5       	ldd	r25, Y+44	; 0x2c
    1e42:	01 97       	sbiw	r24, 0x01	; 1
    1e44:	f1 f7       	brne	.-4      	; 0x1e42 <LCD_vInit+0x116>
    1e46:	9c a7       	std	Y+44, r25	; 0x2c
    1e48:	8b a7       	std	Y+43, r24	; 0x2b

	_delay_ms(50);

	LCD_vSendCmd(TWO_LINE_LCD_EIGHT_BIT_MODE);
    1e4a:	88 e3       	ldi	r24, 0x38	; 56
    1e4c:	0e 94 8d 10 	call	0x211a	; 0x211a <LCD_vSendCmd>
    1e50:	80 e0       	ldi	r24, 0x00	; 0
    1e52:	90 e0       	ldi	r25, 0x00	; 0
    1e54:	a8 e4       	ldi	r26, 0x48	; 72
    1e56:	b2 e4       	ldi	r27, 0x42	; 66
    1e58:	8f a3       	std	Y+39, r24	; 0x27
    1e5a:	98 a7       	std	Y+40, r25	; 0x28
    1e5c:	a9 a7       	std	Y+41, r26	; 0x29
    1e5e:	ba a7       	std	Y+42, r27	; 0x2a
 */
void
_delay_ms(double __ms)
{
	uint16_t __ticks;
	double __tmp = ((F_CPU) / 4e3) * __ms;
    1e60:	6f a1       	ldd	r22, Y+39	; 0x27
    1e62:	78 a5       	ldd	r23, Y+40	; 0x28
    1e64:	89 a5       	ldd	r24, Y+41	; 0x29
    1e66:	9a a5       	ldd	r25, Y+42	; 0x2a
    1e68:	20 e0       	ldi	r18, 0x00	; 0
    1e6a:	30 e0       	ldi	r19, 0x00	; 0
    1e6c:	4a ef       	ldi	r20, 0xFA	; 250
    1e6e:	54 e4       	ldi	r21, 0x44	; 68
    1e70:	0e 94 17 02 	call	0x42e	; 0x42e <__mulsf3>
    1e74:	dc 01       	movw	r26, r24
    1e76:	cb 01       	movw	r24, r22
    1e78:	8b a3       	std	Y+35, r24	; 0x23
    1e7a:	9c a3       	std	Y+36, r25	; 0x24
    1e7c:	ad a3       	std	Y+37, r26	; 0x25
    1e7e:	be a3       	std	Y+38, r27	; 0x26
	if (__tmp < 1.0)
    1e80:	6b a1       	ldd	r22, Y+35	; 0x23
    1e82:	7c a1       	ldd	r23, Y+36	; 0x24
    1e84:	8d a1       	ldd	r24, Y+37	; 0x25
    1e86:	9e a1       	ldd	r25, Y+38	; 0x26
    1e88:	20 e0       	ldi	r18, 0x00	; 0
    1e8a:	30 e0       	ldi	r19, 0x00	; 0
    1e8c:	40 e8       	ldi	r20, 0x80	; 128
    1e8e:	5f e3       	ldi	r21, 0x3F	; 63
    1e90:	0e 94 71 03 	call	0x6e2	; 0x6e2 <__ltsf2>
    1e94:	88 23       	and	r24, r24
    1e96:	2c f4       	brge	.+10     	; 0x1ea2 <LCD_vInit+0x176>
		__ticks = 1;
    1e98:	81 e0       	ldi	r24, 0x01	; 1
    1e9a:	90 e0       	ldi	r25, 0x00	; 0
    1e9c:	9a a3       	std	Y+34, r25	; 0x22
    1e9e:	89 a3       	std	Y+33, r24	; 0x21
    1ea0:	3f c0       	rjmp	.+126    	; 0x1f20 <LCD_vInit+0x1f4>
	else if (__tmp > 65535)
    1ea2:	6b a1       	ldd	r22, Y+35	; 0x23
    1ea4:	7c a1       	ldd	r23, Y+36	; 0x24
    1ea6:	8d a1       	ldd	r24, Y+37	; 0x25
    1ea8:	9e a1       	ldd	r25, Y+38	; 0x26
    1eaa:	20 e0       	ldi	r18, 0x00	; 0
    1eac:	3f ef       	ldi	r19, 0xFF	; 255
    1eae:	4f e7       	ldi	r20, 0x7F	; 127
    1eb0:	57 e4       	ldi	r21, 0x47	; 71
    1eb2:	0e 94 11 03 	call	0x622	; 0x622 <__gtsf2>
    1eb6:	18 16       	cp	r1, r24
    1eb8:	4c f5       	brge	.+82     	; 0x1f0c <LCD_vInit+0x1e0>
	{
		//	__ticks = requested delay in 1/10 ms
		__ticks = (uint16_t) (__ms * 10.0);
    1eba:	6f a1       	ldd	r22, Y+39	; 0x27
    1ebc:	78 a5       	ldd	r23, Y+40	; 0x28
    1ebe:	89 a5       	ldd	r24, Y+41	; 0x29
    1ec0:	9a a5       	ldd	r25, Y+42	; 0x2a
    1ec2:	20 e0       	ldi	r18, 0x00	; 0
    1ec4:	30 e0       	ldi	r19, 0x00	; 0
    1ec6:	40 e2       	ldi	r20, 0x20	; 32
    1ec8:	51 e4       	ldi	r21, 0x41	; 65
    1eca:	0e 94 17 02 	call	0x42e	; 0x42e <__mulsf3>
    1ece:	dc 01       	movw	r26, r24
    1ed0:	cb 01       	movw	r24, r22
    1ed2:	bc 01       	movw	r22, r24
    1ed4:	cd 01       	movw	r24, r26
    1ed6:	0e 94 41 00 	call	0x82	; 0x82 <__fixunssfsi>
    1eda:	dc 01       	movw	r26, r24
    1edc:	cb 01       	movw	r24, r22
    1ede:	9a a3       	std	Y+34, r25	; 0x22
    1ee0:	89 a3       	std	Y+33, r24	; 0x21
    1ee2:	0f c0       	rjmp	.+30     	; 0x1f02 <LCD_vInit+0x1d6>
    1ee4:	88 ec       	ldi	r24, 0xC8	; 200
    1ee6:	90 e0       	ldi	r25, 0x00	; 0
    1ee8:	98 a3       	std	Y+32, r25	; 0x20
    1eea:	8f 8f       	std	Y+31, r24	; 0x1f
    1eec:	8f 8d       	ldd	r24, Y+31	; 0x1f
    1eee:	98 a1       	ldd	r25, Y+32	; 0x20
    1ef0:	01 97       	sbiw	r24, 0x01	; 1
    1ef2:	f1 f7       	brne	.-4      	; 0x1ef0 <LCD_vInit+0x1c4>
    1ef4:	98 a3       	std	Y+32, r25	; 0x20
    1ef6:	8f 8f       	std	Y+31, r24	; 0x1f
		while(__ticks)
		{
			// wait 1/10 ms
			_delay_loop_2(((F_CPU) / 4e3) / 10);
			__ticks --;
    1ef8:	89 a1       	ldd	r24, Y+33	; 0x21
    1efa:	9a a1       	ldd	r25, Y+34	; 0x22
    1efc:	01 97       	sbiw	r24, 0x01	; 1
    1efe:	9a a3       	std	Y+34, r25	; 0x22
    1f00:	89 a3       	std	Y+33, r24	; 0x21
		__ticks = 1;
	else if (__tmp > 65535)
	{
		//	__ticks = requested delay in 1/10 ms
		__ticks = (uint16_t) (__ms * 10.0);
		while(__ticks)
    1f02:	89 a1       	ldd	r24, Y+33	; 0x21
    1f04:	9a a1       	ldd	r25, Y+34	; 0x22
    1f06:	00 97       	sbiw	r24, 0x00	; 0
    1f08:	69 f7       	brne	.-38     	; 0x1ee4 <LCD_vInit+0x1b8>
    1f0a:	14 c0       	rjmp	.+40     	; 0x1f34 <LCD_vInit+0x208>
			__ticks --;
		}
		return;
	}
	else
		__ticks = (uint16_t)__tmp;
    1f0c:	6b a1       	ldd	r22, Y+35	; 0x23
    1f0e:	7c a1       	ldd	r23, Y+36	; 0x24
    1f10:	8d a1       	ldd	r24, Y+37	; 0x25
    1f12:	9e a1       	ldd	r25, Y+38	; 0x26
    1f14:	0e 94 41 00 	call	0x82	; 0x82 <__fixunssfsi>
    1f18:	dc 01       	movw	r26, r24
    1f1a:	cb 01       	movw	r24, r22
    1f1c:	9a a3       	std	Y+34, r25	; 0x22
    1f1e:	89 a3       	std	Y+33, r24	; 0x21
    1f20:	89 a1       	ldd	r24, Y+33	; 0x21
    1f22:	9a a1       	ldd	r25, Y+34	; 0x22
    1f24:	9e 8f       	std	Y+30, r25	; 0x1e
    1f26:	8d 8f       	std	Y+29, r24	; 0x1d
    1f28:	8d 8d       	ldd	r24, Y+29	; 0x1d
    1f2a:	9e 8d       	ldd	r25, Y+30	; 0x1e
    1f2c:	01 97       	sbiw	r24, 0x01	; 1
    1f2e:	f1 f7       	brne	.-4      	; 0x1f2c <LCD_vInit+0x200>
    1f30:	9e 8f       	std	Y+30, r25	; 0x1e
    1f32:	8d 8f       	std	Y+29, r24	; 0x1d

	_delay_ms(50);

	LCD_vSendCmd(CURSOR_ON);
    1f34:	8e e0       	ldi	r24, 0x0E	; 14
    1f36:	0e 94 8d 10 	call	0x211a	; 0x211a <LCD_vSendCmd>
    1f3a:	80 e0       	ldi	r24, 0x00	; 0
    1f3c:	90 e0       	ldi	r25, 0x00	; 0
    1f3e:	a8 e4       	ldi	r26, 0x48	; 72
    1f40:	b2 e4       	ldi	r27, 0x42	; 66
    1f42:	89 8f       	std	Y+25, r24	; 0x19
    1f44:	9a 8f       	std	Y+26, r25	; 0x1a
    1f46:	ab 8f       	std	Y+27, r26	; 0x1b
    1f48:	bc 8f       	std	Y+28, r27	; 0x1c
 */
void
_delay_ms(double __ms)
{
	uint16_t __ticks;
	double __tmp = ((F_CPU) / 4e3) * __ms;
    1f4a:	69 8d       	ldd	r22, Y+25	; 0x19
    1f4c:	7a 8d       	ldd	r23, Y+26	; 0x1a
    1f4e:	8b 8d       	ldd	r24, Y+27	; 0x1b
    1f50:	9c 8d       	ldd	r25, Y+28	; 0x1c
    1f52:	20 e0       	ldi	r18, 0x00	; 0
    1f54:	30 e0       	ldi	r19, 0x00	; 0
    1f56:	4a ef       	ldi	r20, 0xFA	; 250
    1f58:	54 e4       	ldi	r21, 0x44	; 68
    1f5a:	0e 94 17 02 	call	0x42e	; 0x42e <__mulsf3>
    1f5e:	dc 01       	movw	r26, r24
    1f60:	cb 01       	movw	r24, r22
    1f62:	8d 8b       	std	Y+21, r24	; 0x15
    1f64:	9e 8b       	std	Y+22, r25	; 0x16
    1f66:	af 8b       	std	Y+23, r26	; 0x17
    1f68:	b8 8f       	std	Y+24, r27	; 0x18
	if (__tmp < 1.0)
    1f6a:	6d 89       	ldd	r22, Y+21	; 0x15
    1f6c:	7e 89       	ldd	r23, Y+22	; 0x16
    1f6e:	8f 89       	ldd	r24, Y+23	; 0x17
    1f70:	98 8d       	ldd	r25, Y+24	; 0x18
    1f72:	20 e0       	ldi	r18, 0x00	; 0
    1f74:	30 e0       	ldi	r19, 0x00	; 0
    1f76:	40 e8       	ldi	r20, 0x80	; 128
    1f78:	5f e3       	ldi	r21, 0x3F	; 63
    1f7a:	0e 94 71 03 	call	0x6e2	; 0x6e2 <__ltsf2>
    1f7e:	88 23       	and	r24, r24
    1f80:	2c f4       	brge	.+10     	; 0x1f8c <LCD_vInit+0x260>
		__ticks = 1;
    1f82:	81 e0       	ldi	r24, 0x01	; 1
    1f84:	90 e0       	ldi	r25, 0x00	; 0
    1f86:	9c 8b       	std	Y+20, r25	; 0x14
    1f88:	8b 8b       	std	Y+19, r24	; 0x13
    1f8a:	3f c0       	rjmp	.+126    	; 0x200a <LCD_vInit+0x2de>
	else if (__tmp > 65535)
    1f8c:	6d 89       	ldd	r22, Y+21	; 0x15
    1f8e:	7e 89       	ldd	r23, Y+22	; 0x16
    1f90:	8f 89       	ldd	r24, Y+23	; 0x17
    1f92:	98 8d       	ldd	r25, Y+24	; 0x18
    1f94:	20 e0       	ldi	r18, 0x00	; 0
    1f96:	3f ef       	ldi	r19, 0xFF	; 255
    1f98:	4f e7       	ldi	r20, 0x7F	; 127
    1f9a:	57 e4       	ldi	r21, 0x47	; 71
    1f9c:	0e 94 11 03 	call	0x622	; 0x622 <__gtsf2>
    1fa0:	18 16       	cp	r1, r24
    1fa2:	4c f5       	brge	.+82     	; 0x1ff6 <LCD_vInit+0x2ca>
	{
		//	__ticks = requested delay in 1/10 ms
		__ticks = (uint16_t) (__ms * 10.0);
    1fa4:	69 8d       	ldd	r22, Y+25	; 0x19
    1fa6:	7a 8d       	ldd	r23, Y+26	; 0x1a
    1fa8:	8b 8d       	ldd	r24, Y+27	; 0x1b
    1faa:	9c 8d       	ldd	r25, Y+28	; 0x1c
    1fac:	20 e0       	ldi	r18, 0x00	; 0
    1fae:	30 e0       	ldi	r19, 0x00	; 0
    1fb0:	40 e2       	ldi	r20, 0x20	; 32
    1fb2:	51 e4       	ldi	r21, 0x41	; 65
    1fb4:	0e 94 17 02 	call	0x42e	; 0x42e <__mulsf3>
    1fb8:	dc 01       	movw	r26, r24
    1fba:	cb 01       	movw	r24, r22
    1fbc:	bc 01       	movw	r22, r24
    1fbe:	cd 01       	movw	r24, r26
    1fc0:	0e 94 41 00 	call	0x82	; 0x82 <__fixunssfsi>
    1fc4:	dc 01       	movw	r26, r24
    1fc6:	cb 01       	movw	r24, r22
    1fc8:	9c 8b       	std	Y+20, r25	; 0x14
    1fca:	8b 8b       	std	Y+19, r24	; 0x13
    1fcc:	0f c0       	rjmp	.+30     	; 0x1fec <LCD_vInit+0x2c0>
    1fce:	88 ec       	ldi	r24, 0xC8	; 200
    1fd0:	90 e0       	ldi	r25, 0x00	; 0
    1fd2:	9a 8b       	std	Y+18, r25	; 0x12
    1fd4:	89 8b       	std	Y+17, r24	; 0x11
    1fd6:	89 89       	ldd	r24, Y+17	; 0x11
    1fd8:	9a 89       	ldd	r25, Y+18	; 0x12
    1fda:	01 97       	sbiw	r24, 0x01	; 1
    1fdc:	f1 f7       	brne	.-4      	; 0x1fda <LCD_vInit+0x2ae>
    1fde:	9a 8b       	std	Y+18, r25	; 0x12
    1fe0:	89 8b       	std	Y+17, r24	; 0x11
		while(__ticks)
		{
			// wait 1/10 ms
			_delay_loop_2(((F_CPU) / 4e3) / 10);
			__ticks --;
    1fe2:	8b 89       	ldd	r24, Y+19	; 0x13
    1fe4:	9c 89       	ldd	r25, Y+20	; 0x14
    1fe6:	01 97       	sbiw	r24, 0x01	; 1
    1fe8:	9c 8b       	std	Y+20, r25	; 0x14
    1fea:	8b 8b       	std	Y+19, r24	; 0x13
		__ticks = 1;
	else if (__tmp > 65535)
	{
		//	__ticks = requested delay in 1/10 ms
		__ticks = (uint16_t) (__ms * 10.0);
		while(__ticks)
    1fec:	8b 89       	ldd	r24, Y+19	; 0x13
    1fee:	9c 89       	ldd	r25, Y+20	; 0x14
    1ff0:	00 97       	sbiw	r24, 0x00	; 0
    1ff2:	69 f7       	brne	.-38     	; 0x1fce <LCD_vInit+0x2a2>
    1ff4:	14 c0       	rjmp	.+40     	; 0x201e <LCD_vInit+0x2f2>
			__ticks --;
		}
		return;
	}
	else
		__ticks = (uint16_t)__tmp;
    1ff6:	6d 89       	ldd	r22, Y+21	; 0x15
    1ff8:	7e 89       	ldd	r23, Y+22	; 0x16
    1ffa:	8f 89       	ldd	r24, Y+23	; 0x17
    1ffc:	98 8d       	ldd	r25, Y+24	; 0x18
    1ffe:	0e 94 41 00 	call	0x82	; 0x82 <__fixunssfsi>
    2002:	dc 01       	movw	r26, r24
    2004:	cb 01       	movw	r24, r22
    2006:	9c 8b       	std	Y+20, r25	; 0x14
    2008:	8b 8b       	std	Y+19, r24	; 0x13
    200a:	8b 89       	ldd	r24, Y+19	; 0x13
    200c:	9c 89       	ldd	r25, Y+20	; 0x14
    200e:	98 8b       	std	Y+16, r25	; 0x10
    2010:	8f 87       	std	Y+15, r24	; 0x0f
    2012:	8f 85       	ldd	r24, Y+15	; 0x0f
    2014:	98 89       	ldd	r25, Y+16	; 0x10
    2016:	01 97       	sbiw	r24, 0x01	; 1
    2018:	f1 f7       	brne	.-4      	; 0x2016 <LCD_vInit+0x2ea>
    201a:	98 8b       	std	Y+16, r25	; 0x10
    201c:	8f 87       	std	Y+15, r24	; 0x0f

	_delay_ms(50);

	LCD_vSendCmd(CLEAR_COMMAND);
    201e:	81 e0       	ldi	r24, 0x01	; 1
    2020:	0e 94 8d 10 	call	0x211a	; 0x211a <LCD_vSendCmd>
    2024:	80 e0       	ldi	r24, 0x00	; 0
    2026:	90 e0       	ldi	r25, 0x00	; 0
    2028:	a8 e4       	ldi	r26, 0x48	; 72
    202a:	b2 e4       	ldi	r27, 0x42	; 66
    202c:	8b 87       	std	Y+11, r24	; 0x0b
    202e:	9c 87       	std	Y+12, r25	; 0x0c
    2030:	ad 87       	std	Y+13, r26	; 0x0d
    2032:	be 87       	std	Y+14, r27	; 0x0e
 */
void
_delay_ms(double __ms)
{
	uint16_t __ticks;
	double __tmp = ((F_CPU) / 4e3) * __ms;
    2034:	6b 85       	ldd	r22, Y+11	; 0x0b
    2036:	7c 85       	ldd	r23, Y+12	; 0x0c
    2038:	8d 85       	ldd	r24, Y+13	; 0x0d
    203a:	9e 85       	ldd	r25, Y+14	; 0x0e
    203c:	20 e0       	ldi	r18, 0x00	; 0
    203e:	30 e0       	ldi	r19, 0x00	; 0
    2040:	4a ef       	ldi	r20, 0xFA	; 250
    2042:	54 e4       	ldi	r21, 0x44	; 68
    2044:	0e 94 17 02 	call	0x42e	; 0x42e <__mulsf3>
    2048:	dc 01       	movw	r26, r24
    204a:	cb 01       	movw	r24, r22
    204c:	8f 83       	std	Y+7, r24	; 0x07
    204e:	98 87       	std	Y+8, r25	; 0x08
    2050:	a9 87       	std	Y+9, r26	; 0x09
    2052:	ba 87       	std	Y+10, r27	; 0x0a
	if (__tmp < 1.0)
    2054:	6f 81       	ldd	r22, Y+7	; 0x07
    2056:	78 85       	ldd	r23, Y+8	; 0x08
    2058:	89 85       	ldd	r24, Y+9	; 0x09
    205a:	9a 85       	ldd	r25, Y+10	; 0x0a
    205c:	20 e0       	ldi	r18, 0x00	; 0
    205e:	30 e0       	ldi	r19, 0x00	; 0
    2060:	40 e8       	ldi	r20, 0x80	; 128
    2062:	5f e3       	ldi	r21, 0x3F	; 63
    2064:	0e 94 71 03 	call	0x6e2	; 0x6e2 <__ltsf2>
    2068:	88 23       	and	r24, r24
    206a:	2c f4       	brge	.+10     	; 0x2076 <LCD_vInit+0x34a>
		__ticks = 1;
    206c:	81 e0       	ldi	r24, 0x01	; 1
    206e:	90 e0       	ldi	r25, 0x00	; 0
    2070:	9e 83       	std	Y+6, r25	; 0x06
    2072:	8d 83       	std	Y+5, r24	; 0x05
    2074:	3f c0       	rjmp	.+126    	; 0x20f4 <LCD_vInit+0x3c8>
	else if (__tmp > 65535)
    2076:	6f 81       	ldd	r22, Y+7	; 0x07
    2078:	78 85       	ldd	r23, Y+8	; 0x08
    207a:	89 85       	ldd	r24, Y+9	; 0x09
    207c:	9a 85       	ldd	r25, Y+10	; 0x0a
    207e:	20 e0       	ldi	r18, 0x00	; 0
    2080:	3f ef       	ldi	r19, 0xFF	; 255
    2082:	4f e7       	ldi	r20, 0x7F	; 127
    2084:	57 e4       	ldi	r21, 0x47	; 71
    2086:	0e 94 11 03 	call	0x622	; 0x622 <__gtsf2>
    208a:	18 16       	cp	r1, r24
    208c:	4c f5       	brge	.+82     	; 0x20e0 <LCD_vInit+0x3b4>
	{
		//	__ticks = requested delay in 1/10 ms
		__ticks = (uint16_t) (__ms * 10.0);
    208e:	6b 85       	ldd	r22, Y+11	; 0x0b
    2090:	7c 85       	ldd	r23, Y+12	; 0x0c
    2092:	8d 85       	ldd	r24, Y+13	; 0x0d
    2094:	9e 85       	ldd	r25, Y+14	; 0x0e
    2096:	20 e0       	ldi	r18, 0x00	; 0
    2098:	30 e0       	ldi	r19, 0x00	; 0
    209a:	40 e2       	ldi	r20, 0x20	; 32
    209c:	51 e4       	ldi	r21, 0x41	; 65
    209e:	0e 94 17 02 	call	0x42e	; 0x42e <__mulsf3>
    20a2:	dc 01       	movw	r26, r24
    20a4:	cb 01       	movw	r24, r22
    20a6:	bc 01       	movw	r22, r24
    20a8:	cd 01       	movw	r24, r26
    20aa:	0e 94 41 00 	call	0x82	; 0x82 <__fixunssfsi>
    20ae:	dc 01       	movw	r26, r24
    20b0:	cb 01       	movw	r24, r22
    20b2:	9e 83       	std	Y+6, r25	; 0x06
    20b4:	8d 83       	std	Y+5, r24	; 0x05
    20b6:	0f c0       	rjmp	.+30     	; 0x20d6 <LCD_vInit+0x3aa>
    20b8:	88 ec       	ldi	r24, 0xC8	; 200
    20ba:	90 e0       	ldi	r25, 0x00	; 0
    20bc:	9c 83       	std	Y+4, r25	; 0x04
    20be:	8b 83       	std	Y+3, r24	; 0x03
    20c0:	8b 81       	ldd	r24, Y+3	; 0x03
    20c2:	9c 81       	ldd	r25, Y+4	; 0x04
    20c4:	01 97       	sbiw	r24, 0x01	; 1
    20c6:	f1 f7       	brne	.-4      	; 0x20c4 <LCD_vInit+0x398>
    20c8:	9c 83       	std	Y+4, r25	; 0x04
    20ca:	8b 83       	std	Y+3, r24	; 0x03
		while(__ticks)
		{
			// wait 1/10 ms
			_delay_loop_2(((F_CPU) / 4e3) / 10);
			__ticks --;
    20cc:	8d 81       	ldd	r24, Y+5	; 0x05
    20ce:	9e 81       	ldd	r25, Y+6	; 0x06
    20d0:	01 97       	sbiw	r24, 0x01	; 1
    20d2:	9e 83       	std	Y+6, r25	; 0x06
    20d4:	8d 83       	std	Y+5, r24	; 0x05
		__ticks = 1;
	else if (__tmp > 65535)
	{
		//	__ticks = requested delay in 1/10 ms
		__ticks = (uint16_t) (__ms * 10.0);
		while(__ticks)
    20d6:	8d 81       	ldd	r24, Y+5	; 0x05
    20d8:	9e 81       	ldd	r25, Y+6	; 0x06
    20da:	00 97       	sbiw	r24, 0x00	; 0
    20dc:	69 f7       	brne	.-38     	; 0x20b8 <LCD_vInit+0x38c>
    20de:	14 c0       	rjmp	.+40     	; 0x2108 <LCD_vInit+0x3dc>
			__ticks --;
		}
		return;
	}
	else
		__ticks = (uint16_t)__tmp;
    20e0:	6f 81       	ldd	r22, Y+7	; 0x07
    20e2:	78 85       	ldd	r23, Y+8	; 0x08
    20e4:	89 85       	ldd	r24, Y+9	; 0x09
    20e6:	9a 85       	ldd	r25, Y+10	; 0x0a
    20e8:	0e 94 41 00 	call	0x82	; 0x82 <__fixunssfsi>
    20ec:	dc 01       	movw	r26, r24
    20ee:	cb 01       	movw	r24, r22
    20f0:	9e 83       	std	Y+6, r25	; 0x06
    20f2:	8d 83       	std	Y+5, r24	; 0x05
    20f4:	8d 81       	ldd	r24, Y+5	; 0x05
    20f6:	9e 81       	ldd	r25, Y+6	; 0x06
    20f8:	9a 83       	std	Y+2, r25	; 0x02
    20fa:	89 83       	std	Y+1, r24	; 0x01
    20fc:	89 81       	ldd	r24, Y+1	; 0x01
    20fe:	9a 81       	ldd	r25, Y+2	; 0x02
    2100:	01 97       	sbiw	r24, 0x01	; 1
    2102:	f1 f7       	brne	.-4      	; 0x2100 <LCD_vInit+0x3d4>
    2104:	9a 83       	std	Y+2, r25	; 0x02
    2106:	89 83       	std	Y+1, r24	; 0x01

	_delay_ms(50);
}
    2108:	e8 96       	adiw	r28, 0x38	; 56
    210a:	0f b6       	in	r0, 0x3f	; 63
    210c:	f8 94       	cli
    210e:	de bf       	out	0x3e, r29	; 62
    2110:	0f be       	out	0x3f, r0	; 63
    2112:	cd bf       	out	0x3d, r28	; 61
    2114:	cf 91       	pop	r28
    2116:	df 91       	pop	r29
    2118:	08 95       	ret

0000211a <LCD_vSendCmd>:

void LCD_vSendCmd(Uchar8_t Copy_Uchar8_tCommand)
{
    211a:	df 93       	push	r29
    211c:	cf 93       	push	r28
    211e:	cd b7       	in	r28, 0x3d	; 61
    2120:	de b7       	in	r29, 0x3e	; 62
    2122:	e9 97       	sbiw	r28, 0x39	; 57
    2124:	0f b6       	in	r0, 0x3f	; 63
    2126:	f8 94       	cli
    2128:	de bf       	out	0x3e, r29	; 62
    212a:	0f be       	out	0x3f, r0	; 63
    212c:	cd bf       	out	0x3d, r28	; 61
    212e:	89 af       	std	Y+57, r24	; 0x39
	DIO_vSetPinVal(LCD_CTRL_PORT,PIN_RS,LOW);
    2130:	83 e0       	ldi	r24, 0x03	; 3
    2132:	60 e0       	ldi	r22, 0x00	; 0
    2134:	40 e0       	ldi	r20, 0x00	; 0
    2136:	0e 94 fb 06 	call	0xdf6	; 0xdf6 <DIO_vSetPinVal>
	DIO_vSetPinVal(LCD_CTRL_PORT,PIN_RW,LOW);
    213a:	83 e0       	ldi	r24, 0x03	; 3
    213c:	61 e0       	ldi	r22, 0x01	; 1
    213e:	40 e0       	ldi	r20, 0x00	; 0
    2140:	0e 94 fb 06 	call	0xdf6	; 0xdf6 <DIO_vSetPinVal>
    2144:	80 e0       	ldi	r24, 0x00	; 0
    2146:	90 e0       	ldi	r25, 0x00	; 0
    2148:	a8 e4       	ldi	r26, 0x48	; 72
    214a:	b2 e4       	ldi	r27, 0x42	; 66
    214c:	8d ab       	std	Y+53, r24	; 0x35
    214e:	9e ab       	std	Y+54, r25	; 0x36
    2150:	af ab       	std	Y+55, r26	; 0x37
    2152:	b8 af       	std	Y+56, r27	; 0x38
 */
void
_delay_ms(double __ms)
{
	uint16_t __ticks;
	double __tmp = ((F_CPU) / 4e3) * __ms;
    2154:	6d a9       	ldd	r22, Y+53	; 0x35
    2156:	7e a9       	ldd	r23, Y+54	; 0x36
    2158:	8f a9       	ldd	r24, Y+55	; 0x37
    215a:	98 ad       	ldd	r25, Y+56	; 0x38
    215c:	20 e0       	ldi	r18, 0x00	; 0
    215e:	30 e0       	ldi	r19, 0x00	; 0
    2160:	4a ef       	ldi	r20, 0xFA	; 250
    2162:	54 e4       	ldi	r21, 0x44	; 68
    2164:	0e 94 17 02 	call	0x42e	; 0x42e <__mulsf3>
    2168:	dc 01       	movw	r26, r24
    216a:	cb 01       	movw	r24, r22
    216c:	89 ab       	std	Y+49, r24	; 0x31
    216e:	9a ab       	std	Y+50, r25	; 0x32
    2170:	ab ab       	std	Y+51, r26	; 0x33
    2172:	bc ab       	std	Y+52, r27	; 0x34
	if (__tmp < 1.0)
    2174:	69 a9       	ldd	r22, Y+49	; 0x31
    2176:	7a a9       	ldd	r23, Y+50	; 0x32
    2178:	8b a9       	ldd	r24, Y+51	; 0x33
    217a:	9c a9       	ldd	r25, Y+52	; 0x34
    217c:	20 e0       	ldi	r18, 0x00	; 0
    217e:	30 e0       	ldi	r19, 0x00	; 0
    2180:	40 e8       	ldi	r20, 0x80	; 128
    2182:	5f e3       	ldi	r21, 0x3F	; 63
    2184:	0e 94 71 03 	call	0x6e2	; 0x6e2 <__ltsf2>
    2188:	88 23       	and	r24, r24
    218a:	2c f4       	brge	.+10     	; 0x2196 <LCD_vSendCmd+0x7c>
		__ticks = 1;
    218c:	81 e0       	ldi	r24, 0x01	; 1
    218e:	90 e0       	ldi	r25, 0x00	; 0
    2190:	98 ab       	std	Y+48, r25	; 0x30
    2192:	8f a7       	std	Y+47, r24	; 0x2f
    2194:	3f c0       	rjmp	.+126    	; 0x2214 <LCD_vSendCmd+0xfa>
	else if (__tmp > 65535)
    2196:	69 a9       	ldd	r22, Y+49	; 0x31
    2198:	7a a9       	ldd	r23, Y+50	; 0x32
    219a:	8b a9       	ldd	r24, Y+51	; 0x33
    219c:	9c a9       	ldd	r25, Y+52	; 0x34
    219e:	20 e0       	ldi	r18, 0x00	; 0
    21a0:	3f ef       	ldi	r19, 0xFF	; 255
    21a2:	4f e7       	ldi	r20, 0x7F	; 127
    21a4:	57 e4       	ldi	r21, 0x47	; 71
    21a6:	0e 94 11 03 	call	0x622	; 0x622 <__gtsf2>
    21aa:	18 16       	cp	r1, r24
    21ac:	4c f5       	brge	.+82     	; 0x2200 <LCD_vSendCmd+0xe6>
	{
		//	__ticks = requested delay in 1/10 ms
		__ticks = (uint16_t) (__ms * 10.0);
    21ae:	6d a9       	ldd	r22, Y+53	; 0x35
    21b0:	7e a9       	ldd	r23, Y+54	; 0x36
    21b2:	8f a9       	ldd	r24, Y+55	; 0x37
    21b4:	98 ad       	ldd	r25, Y+56	; 0x38
    21b6:	20 e0       	ldi	r18, 0x00	; 0
    21b8:	30 e0       	ldi	r19, 0x00	; 0
    21ba:	40 e2       	ldi	r20, 0x20	; 32
    21bc:	51 e4       	ldi	r21, 0x41	; 65
    21be:	0e 94 17 02 	call	0x42e	; 0x42e <__mulsf3>
    21c2:	dc 01       	movw	r26, r24
    21c4:	cb 01       	movw	r24, r22
    21c6:	bc 01       	movw	r22, r24
    21c8:	cd 01       	movw	r24, r26
    21ca:	0e 94 41 00 	call	0x82	; 0x82 <__fixunssfsi>
    21ce:	dc 01       	movw	r26, r24
    21d0:	cb 01       	movw	r24, r22
    21d2:	98 ab       	std	Y+48, r25	; 0x30
    21d4:	8f a7       	std	Y+47, r24	; 0x2f
    21d6:	0f c0       	rjmp	.+30     	; 0x21f6 <LCD_vSendCmd+0xdc>
    21d8:	88 ec       	ldi	r24, 0xC8	; 200
    21da:	90 e0       	ldi	r25, 0x00	; 0
    21dc:	9e a7       	std	Y+46, r25	; 0x2e
    21de:	8d a7       	std	Y+45, r24	; 0x2d
    21e0:	8d a5       	ldd	r24, Y+45	; 0x2d
    21e2:	9e a5       	ldd	r25, Y+46	; 0x2e
    21e4:	01 97       	sbiw	r24, 0x01	; 1
    21e6:	f1 f7       	brne	.-4      	; 0x21e4 <LCD_vSendCmd+0xca>
    21e8:	9e a7       	std	Y+46, r25	; 0x2e
    21ea:	8d a7       	std	Y+45, r24	; 0x2d
		while(__ticks)
		{
			// wait 1/10 ms
			_delay_loop_2(((F_CPU) / 4e3) / 10);
			__ticks --;
    21ec:	8f a5       	ldd	r24, Y+47	; 0x2f
    21ee:	98 a9       	ldd	r25, Y+48	; 0x30
    21f0:	01 97       	sbiw	r24, 0x01	; 1
    21f2:	98 ab       	std	Y+48, r25	; 0x30
    21f4:	8f a7       	std	Y+47, r24	; 0x2f
		__ticks = 1;
	else if (__tmp > 65535)
	{
		//	__ticks = requested delay in 1/10 ms
		__ticks = (uint16_t) (__ms * 10.0);
		while(__ticks)
    21f6:	8f a5       	ldd	r24, Y+47	; 0x2f
    21f8:	98 a9       	ldd	r25, Y+48	; 0x30
    21fa:	00 97       	sbiw	r24, 0x00	; 0
    21fc:	69 f7       	brne	.-38     	; 0x21d8 <LCD_vSendCmd+0xbe>
    21fe:	14 c0       	rjmp	.+40     	; 0x2228 <LCD_vSendCmd+0x10e>
			__ticks --;
		}
		return;
	}
	else
		__ticks = (uint16_t)__tmp;
    2200:	69 a9       	ldd	r22, Y+49	; 0x31
    2202:	7a a9       	ldd	r23, Y+50	; 0x32
    2204:	8b a9       	ldd	r24, Y+51	; 0x33
    2206:	9c a9       	ldd	r25, Y+52	; 0x34
    2208:	0e 94 41 00 	call	0x82	; 0x82 <__fixunssfsi>
    220c:	dc 01       	movw	r26, r24
    220e:	cb 01       	movw	r24, r22
    2210:	98 ab       	std	Y+48, r25	; 0x30
    2212:	8f a7       	std	Y+47, r24	; 0x2f
    2214:	8f a5       	ldd	r24, Y+47	; 0x2f
    2216:	98 a9       	ldd	r25, Y+48	; 0x30
    2218:	9c a7       	std	Y+44, r25	; 0x2c
    221a:	8b a7       	std	Y+43, r24	; 0x2b
    221c:	8b a5       	ldd	r24, Y+43	; 0x2b
    221e:	9c a5       	ldd	r25, Y+44	; 0x2c
    2220:	01 97       	sbiw	r24, 0x01	; 1
    2222:	f1 f7       	brne	.-4      	; 0x2220 <LCD_vSendCmd+0x106>
    2224:	9c a7       	std	Y+44, r25	; 0x2c
    2226:	8b a7       	std	Y+43, r24	; 0x2b
	_delay_ms(50);
	DIO_vSetPinVal(LCD_CTRL_PORT,PIN_EN,HIGH);
    2228:	83 e0       	ldi	r24, 0x03	; 3
    222a:	62 e0       	ldi	r22, 0x02	; 2
    222c:	41 e0       	ldi	r20, 0x01	; 1
    222e:	0e 94 fb 06 	call	0xdf6	; 0xdf6 <DIO_vSetPinVal>
    2232:	80 e0       	ldi	r24, 0x00	; 0
    2234:	90 e0       	ldi	r25, 0x00	; 0
    2236:	a8 e4       	ldi	r26, 0x48	; 72
    2238:	b2 e4       	ldi	r27, 0x42	; 66
    223a:	8f a3       	std	Y+39, r24	; 0x27
    223c:	98 a7       	std	Y+40, r25	; 0x28
    223e:	a9 a7       	std	Y+41, r26	; 0x29
    2240:	ba a7       	std	Y+42, r27	; 0x2a
 */
void
_delay_ms(double __ms)
{
	uint16_t __ticks;
	double __tmp = ((F_CPU) / 4e3) * __ms;
    2242:	6f a1       	ldd	r22, Y+39	; 0x27
    2244:	78 a5       	ldd	r23, Y+40	; 0x28
    2246:	89 a5       	ldd	r24, Y+41	; 0x29
    2248:	9a a5       	ldd	r25, Y+42	; 0x2a
    224a:	20 e0       	ldi	r18, 0x00	; 0
    224c:	30 e0       	ldi	r19, 0x00	; 0
    224e:	4a ef       	ldi	r20, 0xFA	; 250
    2250:	54 e4       	ldi	r21, 0x44	; 68
    2252:	0e 94 17 02 	call	0x42e	; 0x42e <__mulsf3>
    2256:	dc 01       	movw	r26, r24
    2258:	cb 01       	movw	r24, r22
    225a:	8b a3       	std	Y+35, r24	; 0x23
    225c:	9c a3       	std	Y+36, r25	; 0x24
    225e:	ad a3       	std	Y+37, r26	; 0x25
    2260:	be a3       	std	Y+38, r27	; 0x26
	if (__tmp < 1.0)
    2262:	6b a1       	ldd	r22, Y+35	; 0x23
    2264:	7c a1       	ldd	r23, Y+36	; 0x24
    2266:	8d a1       	ldd	r24, Y+37	; 0x25
    2268:	9e a1       	ldd	r25, Y+38	; 0x26
    226a:	20 e0       	ldi	r18, 0x00	; 0
    226c:	30 e0       	ldi	r19, 0x00	; 0
    226e:	40 e8       	ldi	r20, 0x80	; 128
    2270:	5f e3       	ldi	r21, 0x3F	; 63
    2272:	0e 94 71 03 	call	0x6e2	; 0x6e2 <__ltsf2>
    2276:	88 23       	and	r24, r24
    2278:	2c f4       	brge	.+10     	; 0x2284 <LCD_vSendCmd+0x16a>
		__ticks = 1;
    227a:	81 e0       	ldi	r24, 0x01	; 1
    227c:	90 e0       	ldi	r25, 0x00	; 0
    227e:	9a a3       	std	Y+34, r25	; 0x22
    2280:	89 a3       	std	Y+33, r24	; 0x21
    2282:	3f c0       	rjmp	.+126    	; 0x2302 <LCD_vSendCmd+0x1e8>
	else if (__tmp > 65535)
    2284:	6b a1       	ldd	r22, Y+35	; 0x23
    2286:	7c a1       	ldd	r23, Y+36	; 0x24
    2288:	8d a1       	ldd	r24, Y+37	; 0x25
    228a:	9e a1       	ldd	r25, Y+38	; 0x26
    228c:	20 e0       	ldi	r18, 0x00	; 0
    228e:	3f ef       	ldi	r19, 0xFF	; 255
    2290:	4f e7       	ldi	r20, 0x7F	; 127
    2292:	57 e4       	ldi	r21, 0x47	; 71
    2294:	0e 94 11 03 	call	0x622	; 0x622 <__gtsf2>
    2298:	18 16       	cp	r1, r24
    229a:	4c f5       	brge	.+82     	; 0x22ee <LCD_vSendCmd+0x1d4>
	{
		//	__ticks = requested delay in 1/10 ms
		__ticks = (uint16_t) (__ms * 10.0);
    229c:	6f a1       	ldd	r22, Y+39	; 0x27
    229e:	78 a5       	ldd	r23, Y+40	; 0x28
    22a0:	89 a5       	ldd	r24, Y+41	; 0x29
    22a2:	9a a5       	ldd	r25, Y+42	; 0x2a
    22a4:	20 e0       	ldi	r18, 0x00	; 0
    22a6:	30 e0       	ldi	r19, 0x00	; 0
    22a8:	40 e2       	ldi	r20, 0x20	; 32
    22aa:	51 e4       	ldi	r21, 0x41	; 65
    22ac:	0e 94 17 02 	call	0x42e	; 0x42e <__mulsf3>
    22b0:	dc 01       	movw	r26, r24
    22b2:	cb 01       	movw	r24, r22
    22b4:	bc 01       	movw	r22, r24
    22b6:	cd 01       	movw	r24, r26
    22b8:	0e 94 41 00 	call	0x82	; 0x82 <__fixunssfsi>
    22bc:	dc 01       	movw	r26, r24
    22be:	cb 01       	movw	r24, r22
    22c0:	9a a3       	std	Y+34, r25	; 0x22
    22c2:	89 a3       	std	Y+33, r24	; 0x21
    22c4:	0f c0       	rjmp	.+30     	; 0x22e4 <LCD_vSendCmd+0x1ca>
    22c6:	88 ec       	ldi	r24, 0xC8	; 200
    22c8:	90 e0       	ldi	r25, 0x00	; 0
    22ca:	98 a3       	std	Y+32, r25	; 0x20
    22cc:	8f 8f       	std	Y+31, r24	; 0x1f
    22ce:	8f 8d       	ldd	r24, Y+31	; 0x1f
    22d0:	98 a1       	ldd	r25, Y+32	; 0x20
    22d2:	01 97       	sbiw	r24, 0x01	; 1
    22d4:	f1 f7       	brne	.-4      	; 0x22d2 <LCD_vSendCmd+0x1b8>
    22d6:	98 a3       	std	Y+32, r25	; 0x20
    22d8:	8f 8f       	std	Y+31, r24	; 0x1f
		while(__ticks)
		{
			// wait 1/10 ms
			_delay_loop_2(((F_CPU) / 4e3) / 10);
			__ticks --;
    22da:	89 a1       	ldd	r24, Y+33	; 0x21
    22dc:	9a a1       	ldd	r25, Y+34	; 0x22
    22de:	01 97       	sbiw	r24, 0x01	; 1
    22e0:	9a a3       	std	Y+34, r25	; 0x22
    22e2:	89 a3       	std	Y+33, r24	; 0x21
		__ticks = 1;
	else if (__tmp > 65535)
	{
		//	__ticks = requested delay in 1/10 ms
		__ticks = (uint16_t) (__ms * 10.0);
		while(__ticks)
    22e4:	89 a1       	ldd	r24, Y+33	; 0x21
    22e6:	9a a1       	ldd	r25, Y+34	; 0x22
    22e8:	00 97       	sbiw	r24, 0x00	; 0
    22ea:	69 f7       	brne	.-38     	; 0x22c6 <LCD_vSendCmd+0x1ac>
    22ec:	14 c0       	rjmp	.+40     	; 0x2316 <LCD_vSendCmd+0x1fc>
			__ticks --;
		}
		return;
	}
	else
		__ticks = (uint16_t)__tmp;
    22ee:	6b a1       	ldd	r22, Y+35	; 0x23
    22f0:	7c a1       	ldd	r23, Y+36	; 0x24
    22f2:	8d a1       	ldd	r24, Y+37	; 0x25
    22f4:	9e a1       	ldd	r25, Y+38	; 0x26
    22f6:	0e 94 41 00 	call	0x82	; 0x82 <__fixunssfsi>
    22fa:	dc 01       	movw	r26, r24
    22fc:	cb 01       	movw	r24, r22
    22fe:	9a a3       	std	Y+34, r25	; 0x22
    2300:	89 a3       	std	Y+33, r24	; 0x21
    2302:	89 a1       	ldd	r24, Y+33	; 0x21
    2304:	9a a1       	ldd	r25, Y+34	; 0x22
    2306:	9e 8f       	std	Y+30, r25	; 0x1e
    2308:	8d 8f       	std	Y+29, r24	; 0x1d
    230a:	8d 8d       	ldd	r24, Y+29	; 0x1d
    230c:	9e 8d       	ldd	r25, Y+30	; 0x1e
    230e:	01 97       	sbiw	r24, 0x01	; 1
    2310:	f1 f7       	brne	.-4      	; 0x230e <LCD_vSendCmd+0x1f4>
    2312:	9e 8f       	std	Y+30, r25	; 0x1e
    2314:	8d 8f       	std	Y+29, r24	; 0x1d
	_delay_ms(50);
	DIO_vSetGroupPinCmd(LCD_DATA_PORT,Copy_Uchar8_tCommand);
    2316:	84 e0       	ldi	r24, 0x04	; 4
    2318:	69 ad       	ldd	r22, Y+57	; 0x39
    231a:	0e 94 6d 09 	call	0x12da	; 0x12da <DIO_vSetGroupPinCmd>
    231e:	80 e0       	ldi	r24, 0x00	; 0
    2320:	90 e0       	ldi	r25, 0x00	; 0
    2322:	a8 e4       	ldi	r26, 0x48	; 72
    2324:	b2 e4       	ldi	r27, 0x42	; 66
    2326:	89 8f       	std	Y+25, r24	; 0x19
    2328:	9a 8f       	std	Y+26, r25	; 0x1a
    232a:	ab 8f       	std	Y+27, r26	; 0x1b
    232c:	bc 8f       	std	Y+28, r27	; 0x1c
 */
void
_delay_ms(double __ms)
{
	uint16_t __ticks;
	double __tmp = ((F_CPU) / 4e3) * __ms;
    232e:	69 8d       	ldd	r22, Y+25	; 0x19
    2330:	7a 8d       	ldd	r23, Y+26	; 0x1a
    2332:	8b 8d       	ldd	r24, Y+27	; 0x1b
    2334:	9c 8d       	ldd	r25, Y+28	; 0x1c
    2336:	20 e0       	ldi	r18, 0x00	; 0
    2338:	30 e0       	ldi	r19, 0x00	; 0
    233a:	4a ef       	ldi	r20, 0xFA	; 250
    233c:	54 e4       	ldi	r21, 0x44	; 68
    233e:	0e 94 17 02 	call	0x42e	; 0x42e <__mulsf3>
    2342:	dc 01       	movw	r26, r24
    2344:	cb 01       	movw	r24, r22
    2346:	8d 8b       	std	Y+21, r24	; 0x15
    2348:	9e 8b       	std	Y+22, r25	; 0x16
    234a:	af 8b       	std	Y+23, r26	; 0x17
    234c:	b8 8f       	std	Y+24, r27	; 0x18
	if (__tmp < 1.0)
    234e:	6d 89       	ldd	r22, Y+21	; 0x15
    2350:	7e 89       	ldd	r23, Y+22	; 0x16
    2352:	8f 89       	ldd	r24, Y+23	; 0x17
    2354:	98 8d       	ldd	r25, Y+24	; 0x18
    2356:	20 e0       	ldi	r18, 0x00	; 0
    2358:	30 e0       	ldi	r19, 0x00	; 0
    235a:	40 e8       	ldi	r20, 0x80	; 128
    235c:	5f e3       	ldi	r21, 0x3F	; 63
    235e:	0e 94 71 03 	call	0x6e2	; 0x6e2 <__ltsf2>
    2362:	88 23       	and	r24, r24
    2364:	2c f4       	brge	.+10     	; 0x2370 <LCD_vSendCmd+0x256>
		__ticks = 1;
    2366:	81 e0       	ldi	r24, 0x01	; 1
    2368:	90 e0       	ldi	r25, 0x00	; 0
    236a:	9c 8b       	std	Y+20, r25	; 0x14
    236c:	8b 8b       	std	Y+19, r24	; 0x13
    236e:	3f c0       	rjmp	.+126    	; 0x23ee <LCD_vSendCmd+0x2d4>
	else if (__tmp > 65535)
    2370:	6d 89       	ldd	r22, Y+21	; 0x15
    2372:	7e 89       	ldd	r23, Y+22	; 0x16
    2374:	8f 89       	ldd	r24, Y+23	; 0x17
    2376:	98 8d       	ldd	r25, Y+24	; 0x18
    2378:	20 e0       	ldi	r18, 0x00	; 0
    237a:	3f ef       	ldi	r19, 0xFF	; 255
    237c:	4f e7       	ldi	r20, 0x7F	; 127
    237e:	57 e4       	ldi	r21, 0x47	; 71
    2380:	0e 94 11 03 	call	0x622	; 0x622 <__gtsf2>
    2384:	18 16       	cp	r1, r24
    2386:	4c f5       	brge	.+82     	; 0x23da <LCD_vSendCmd+0x2c0>
	{
		//	__ticks = requested delay in 1/10 ms
		__ticks = (uint16_t) (__ms * 10.0);
    2388:	69 8d       	ldd	r22, Y+25	; 0x19
    238a:	7a 8d       	ldd	r23, Y+26	; 0x1a
    238c:	8b 8d       	ldd	r24, Y+27	; 0x1b
    238e:	9c 8d       	ldd	r25, Y+28	; 0x1c
    2390:	20 e0       	ldi	r18, 0x00	; 0
    2392:	30 e0       	ldi	r19, 0x00	; 0
    2394:	40 e2       	ldi	r20, 0x20	; 32
    2396:	51 e4       	ldi	r21, 0x41	; 65
    2398:	0e 94 17 02 	call	0x42e	; 0x42e <__mulsf3>
    239c:	dc 01       	movw	r26, r24
    239e:	cb 01       	movw	r24, r22
    23a0:	bc 01       	movw	r22, r24
    23a2:	cd 01       	movw	r24, r26
    23a4:	0e 94 41 00 	call	0x82	; 0x82 <__fixunssfsi>
    23a8:	dc 01       	movw	r26, r24
    23aa:	cb 01       	movw	r24, r22
    23ac:	9c 8b       	std	Y+20, r25	; 0x14
    23ae:	8b 8b       	std	Y+19, r24	; 0x13
    23b0:	0f c0       	rjmp	.+30     	; 0x23d0 <LCD_vSendCmd+0x2b6>
    23b2:	88 ec       	ldi	r24, 0xC8	; 200
    23b4:	90 e0       	ldi	r25, 0x00	; 0
    23b6:	9a 8b       	std	Y+18, r25	; 0x12
    23b8:	89 8b       	std	Y+17, r24	; 0x11
    23ba:	89 89       	ldd	r24, Y+17	; 0x11
    23bc:	9a 89       	ldd	r25, Y+18	; 0x12
    23be:	01 97       	sbiw	r24, 0x01	; 1
    23c0:	f1 f7       	brne	.-4      	; 0x23be <LCD_vSendCmd+0x2a4>
    23c2:	9a 8b       	std	Y+18, r25	; 0x12
    23c4:	89 8b       	std	Y+17, r24	; 0x11
		while(__ticks)
		{
			// wait 1/10 ms
			_delay_loop_2(((F_CPU) / 4e3) / 10);
			__ticks --;
    23c6:	8b 89       	ldd	r24, Y+19	; 0x13
    23c8:	9c 89       	ldd	r25, Y+20	; 0x14
    23ca:	01 97       	sbiw	r24, 0x01	; 1
    23cc:	9c 8b       	std	Y+20, r25	; 0x14
    23ce:	8b 8b       	std	Y+19, r24	; 0x13
		__ticks = 1;
	else if (__tmp > 65535)
	{
		//	__ticks = requested delay in 1/10 ms
		__ticks = (uint16_t) (__ms * 10.0);
		while(__ticks)
    23d0:	8b 89       	ldd	r24, Y+19	; 0x13
    23d2:	9c 89       	ldd	r25, Y+20	; 0x14
    23d4:	00 97       	sbiw	r24, 0x00	; 0
    23d6:	69 f7       	brne	.-38     	; 0x23b2 <LCD_vSendCmd+0x298>
    23d8:	14 c0       	rjmp	.+40     	; 0x2402 <LCD_vSendCmd+0x2e8>
			__ticks --;
		}
		return;
	}
	else
		__ticks = (uint16_t)__tmp;
    23da:	6d 89       	ldd	r22, Y+21	; 0x15
    23dc:	7e 89       	ldd	r23, Y+22	; 0x16
    23de:	8f 89       	ldd	r24, Y+23	; 0x17
    23e0:	98 8d       	ldd	r25, Y+24	; 0x18
    23e2:	0e 94 41 00 	call	0x82	; 0x82 <__fixunssfsi>
    23e6:	dc 01       	movw	r26, r24
    23e8:	cb 01       	movw	r24, r22
    23ea:	9c 8b       	std	Y+20, r25	; 0x14
    23ec:	8b 8b       	std	Y+19, r24	; 0x13
    23ee:	8b 89       	ldd	r24, Y+19	; 0x13
    23f0:	9c 89       	ldd	r25, Y+20	; 0x14
    23f2:	98 8b       	std	Y+16, r25	; 0x10
    23f4:	8f 87       	std	Y+15, r24	; 0x0f
    23f6:	8f 85       	ldd	r24, Y+15	; 0x0f
    23f8:	98 89       	ldd	r25, Y+16	; 0x10
    23fa:	01 97       	sbiw	r24, 0x01	; 1
    23fc:	f1 f7       	brne	.-4      	; 0x23fa <LCD_vSendCmd+0x2e0>
    23fe:	98 8b       	std	Y+16, r25	; 0x10
    2400:	8f 87       	std	Y+15, r24	; 0x0f
	_delay_ms(50);
	DIO_vSetPinVal(LCD_CTRL_PORT,PIN_EN,LOW);
    2402:	83 e0       	ldi	r24, 0x03	; 3
    2404:	62 e0       	ldi	r22, 0x02	; 2
    2406:	40 e0       	ldi	r20, 0x00	; 0
    2408:	0e 94 fb 06 	call	0xdf6	; 0xdf6 <DIO_vSetPinVal>
    240c:	80 e0       	ldi	r24, 0x00	; 0
    240e:	90 e0       	ldi	r25, 0x00	; 0
    2410:	a8 e4       	ldi	r26, 0x48	; 72
    2412:	b2 e4       	ldi	r27, 0x42	; 66
    2414:	8b 87       	std	Y+11, r24	; 0x0b
    2416:	9c 87       	std	Y+12, r25	; 0x0c
    2418:	ad 87       	std	Y+13, r26	; 0x0d
    241a:	be 87       	std	Y+14, r27	; 0x0e
 */
void
_delay_ms(double __ms)
{
	uint16_t __ticks;
	double __tmp = ((F_CPU) / 4e3) * __ms;
    241c:	6b 85       	ldd	r22, Y+11	; 0x0b
    241e:	7c 85       	ldd	r23, Y+12	; 0x0c
    2420:	8d 85       	ldd	r24, Y+13	; 0x0d
    2422:	9e 85       	ldd	r25, Y+14	; 0x0e
    2424:	20 e0       	ldi	r18, 0x00	; 0
    2426:	30 e0       	ldi	r19, 0x00	; 0
    2428:	4a ef       	ldi	r20, 0xFA	; 250
    242a:	54 e4       	ldi	r21, 0x44	; 68
    242c:	0e 94 17 02 	call	0x42e	; 0x42e <__mulsf3>
    2430:	dc 01       	movw	r26, r24
    2432:	cb 01       	movw	r24, r22
    2434:	8f 83       	std	Y+7, r24	; 0x07
    2436:	98 87       	std	Y+8, r25	; 0x08
    2438:	a9 87       	std	Y+9, r26	; 0x09
    243a:	ba 87       	std	Y+10, r27	; 0x0a
	if (__tmp < 1.0)
    243c:	6f 81       	ldd	r22, Y+7	; 0x07
    243e:	78 85       	ldd	r23, Y+8	; 0x08
    2440:	89 85       	ldd	r24, Y+9	; 0x09
    2442:	9a 85       	ldd	r25, Y+10	; 0x0a
    2444:	20 e0       	ldi	r18, 0x00	; 0
    2446:	30 e0       	ldi	r19, 0x00	; 0
    2448:	40 e8       	ldi	r20, 0x80	; 128
    244a:	5f e3       	ldi	r21, 0x3F	; 63
    244c:	0e 94 71 03 	call	0x6e2	; 0x6e2 <__ltsf2>
    2450:	88 23       	and	r24, r24
    2452:	2c f4       	brge	.+10     	; 0x245e <LCD_vSendCmd+0x344>
		__ticks = 1;
    2454:	81 e0       	ldi	r24, 0x01	; 1
    2456:	90 e0       	ldi	r25, 0x00	; 0
    2458:	9e 83       	std	Y+6, r25	; 0x06
    245a:	8d 83       	std	Y+5, r24	; 0x05
    245c:	3f c0       	rjmp	.+126    	; 0x24dc <LCD_vSendCmd+0x3c2>
	else if (__tmp > 65535)
    245e:	6f 81       	ldd	r22, Y+7	; 0x07
    2460:	78 85       	ldd	r23, Y+8	; 0x08
    2462:	89 85       	ldd	r24, Y+9	; 0x09
    2464:	9a 85       	ldd	r25, Y+10	; 0x0a
    2466:	20 e0       	ldi	r18, 0x00	; 0
    2468:	3f ef       	ldi	r19, 0xFF	; 255
    246a:	4f e7       	ldi	r20, 0x7F	; 127
    246c:	57 e4       	ldi	r21, 0x47	; 71
    246e:	0e 94 11 03 	call	0x622	; 0x622 <__gtsf2>
    2472:	18 16       	cp	r1, r24
    2474:	4c f5       	brge	.+82     	; 0x24c8 <LCD_vSendCmd+0x3ae>
	{
		//	__ticks = requested delay in 1/10 ms
		__ticks = (uint16_t) (__ms * 10.0);
    2476:	6b 85       	ldd	r22, Y+11	; 0x0b
    2478:	7c 85       	ldd	r23, Y+12	; 0x0c
    247a:	8d 85       	ldd	r24, Y+13	; 0x0d
    247c:	9e 85       	ldd	r25, Y+14	; 0x0e
    247e:	20 e0       	ldi	r18, 0x00	; 0
    2480:	30 e0       	ldi	r19, 0x00	; 0
    2482:	40 e2       	ldi	r20, 0x20	; 32
    2484:	51 e4       	ldi	r21, 0x41	; 65
    2486:	0e 94 17 02 	call	0x42e	; 0x42e <__mulsf3>
    248a:	dc 01       	movw	r26, r24
    248c:	cb 01       	movw	r24, r22
    248e:	bc 01       	movw	r22, r24
    2490:	cd 01       	movw	r24, r26
    2492:	0e 94 41 00 	call	0x82	; 0x82 <__fixunssfsi>
    2496:	dc 01       	movw	r26, r24
    2498:	cb 01       	movw	r24, r22
    249a:	9e 83       	std	Y+6, r25	; 0x06
    249c:	8d 83       	std	Y+5, r24	; 0x05
    249e:	0f c0       	rjmp	.+30     	; 0x24be <LCD_vSendCmd+0x3a4>
    24a0:	88 ec       	ldi	r24, 0xC8	; 200
    24a2:	90 e0       	ldi	r25, 0x00	; 0
    24a4:	9c 83       	std	Y+4, r25	; 0x04
    24a6:	8b 83       	std	Y+3, r24	; 0x03
    24a8:	8b 81       	ldd	r24, Y+3	; 0x03
    24aa:	9c 81       	ldd	r25, Y+4	; 0x04
    24ac:	01 97       	sbiw	r24, 0x01	; 1
    24ae:	f1 f7       	brne	.-4      	; 0x24ac <LCD_vSendCmd+0x392>
    24b0:	9c 83       	std	Y+4, r25	; 0x04
    24b2:	8b 83       	std	Y+3, r24	; 0x03
		while(__ticks)
		{
			// wait 1/10 ms
			_delay_loop_2(((F_CPU) / 4e3) / 10);
			__ticks --;
    24b4:	8d 81       	ldd	r24, Y+5	; 0x05
    24b6:	9e 81       	ldd	r25, Y+6	; 0x06
    24b8:	01 97       	sbiw	r24, 0x01	; 1
    24ba:	9e 83       	std	Y+6, r25	; 0x06
    24bc:	8d 83       	std	Y+5, r24	; 0x05
		__ticks = 1;
	else if (__tmp > 65535)
	{
		//	__ticks = requested delay in 1/10 ms
		__ticks = (uint16_t) (__ms * 10.0);
		while(__ticks)
    24be:	8d 81       	ldd	r24, Y+5	; 0x05
    24c0:	9e 81       	ldd	r25, Y+6	; 0x06
    24c2:	00 97       	sbiw	r24, 0x00	; 0
    24c4:	69 f7       	brne	.-38     	; 0x24a0 <LCD_vSendCmd+0x386>
    24c6:	14 c0       	rjmp	.+40     	; 0x24f0 <LCD_vSendCmd+0x3d6>
			__ticks --;
		}
		return;
	}
	else
		__ticks = (uint16_t)__tmp;
    24c8:	6f 81       	ldd	r22, Y+7	; 0x07
    24ca:	78 85       	ldd	r23, Y+8	; 0x08
    24cc:	89 85       	ldd	r24, Y+9	; 0x09
    24ce:	9a 85       	ldd	r25, Y+10	; 0x0a
    24d0:	0e 94 41 00 	call	0x82	; 0x82 <__fixunssfsi>
    24d4:	dc 01       	movw	r26, r24
    24d6:	cb 01       	movw	r24, r22
    24d8:	9e 83       	std	Y+6, r25	; 0x06
    24da:	8d 83       	std	Y+5, r24	; 0x05
    24dc:	8d 81       	ldd	r24, Y+5	; 0x05
    24de:	9e 81       	ldd	r25, Y+6	; 0x06
    24e0:	9a 83       	std	Y+2, r25	; 0x02
    24e2:	89 83       	std	Y+1, r24	; 0x01
    24e4:	89 81       	ldd	r24, Y+1	; 0x01
    24e6:	9a 81       	ldd	r25, Y+2	; 0x02
    24e8:	01 97       	sbiw	r24, 0x01	; 1
    24ea:	f1 f7       	brne	.-4      	; 0x24e8 <LCD_vSendCmd+0x3ce>
    24ec:	9a 83       	std	Y+2, r25	; 0x02
    24ee:	89 83       	std	Y+1, r24	; 0x01
	_delay_ms(50);
}
    24f0:	e9 96       	adiw	r28, 0x39	; 57
    24f2:	0f b6       	in	r0, 0x3f	; 63
    24f4:	f8 94       	cli
    24f6:	de bf       	out	0x3e, r29	; 62
    24f8:	0f be       	out	0x3f, r0	; 63
    24fa:	cd bf       	out	0x3d, r28	; 61
    24fc:	cf 91       	pop	r28
    24fe:	df 91       	pop	r29
    2500:	08 95       	ret

00002502 <LCD_vDisplayChar>:

void LCD_vDisplayChar(Uchar8_t Copy_Uchar8_tChar)
{
    2502:	df 93       	push	r29
    2504:	cf 93       	push	r28
    2506:	cd b7       	in	r28, 0x3d	; 61
    2508:	de b7       	in	r29, 0x3e	; 62
    250a:	e9 97       	sbiw	r28, 0x39	; 57
    250c:	0f b6       	in	r0, 0x3f	; 63
    250e:	f8 94       	cli
    2510:	de bf       	out	0x3e, r29	; 62
    2512:	0f be       	out	0x3f, r0	; 63
    2514:	cd bf       	out	0x3d, r28	; 61
    2516:	89 af       	std	Y+57, r24	; 0x39
	DIO_vSetPinVal(LCD_CTRL_PORT,PIN_RS,HIGH);
    2518:	83 e0       	ldi	r24, 0x03	; 3
    251a:	60 e0       	ldi	r22, 0x00	; 0
    251c:	41 e0       	ldi	r20, 0x01	; 1
    251e:	0e 94 fb 06 	call	0xdf6	; 0xdf6 <DIO_vSetPinVal>
	DIO_vSetPinVal(LCD_CTRL_PORT,PIN_RW,LOW);
    2522:	83 e0       	ldi	r24, 0x03	; 3
    2524:	61 e0       	ldi	r22, 0x01	; 1
    2526:	40 e0       	ldi	r20, 0x00	; 0
    2528:	0e 94 fb 06 	call	0xdf6	; 0xdf6 <DIO_vSetPinVal>
    252c:	80 e0       	ldi	r24, 0x00	; 0
    252e:	90 e0       	ldi	r25, 0x00	; 0
    2530:	a8 e4       	ldi	r26, 0x48	; 72
    2532:	b2 e4       	ldi	r27, 0x42	; 66
    2534:	8d ab       	std	Y+53, r24	; 0x35
    2536:	9e ab       	std	Y+54, r25	; 0x36
    2538:	af ab       	std	Y+55, r26	; 0x37
    253a:	b8 af       	std	Y+56, r27	; 0x38
 */
void
_delay_ms(double __ms)
{
	uint16_t __ticks;
	double __tmp = ((F_CPU) / 4e3) * __ms;
    253c:	6d a9       	ldd	r22, Y+53	; 0x35
    253e:	7e a9       	ldd	r23, Y+54	; 0x36
    2540:	8f a9       	ldd	r24, Y+55	; 0x37
    2542:	98 ad       	ldd	r25, Y+56	; 0x38
    2544:	20 e0       	ldi	r18, 0x00	; 0
    2546:	30 e0       	ldi	r19, 0x00	; 0
    2548:	4a ef       	ldi	r20, 0xFA	; 250
    254a:	54 e4       	ldi	r21, 0x44	; 68
    254c:	0e 94 17 02 	call	0x42e	; 0x42e <__mulsf3>
    2550:	dc 01       	movw	r26, r24
    2552:	cb 01       	movw	r24, r22
    2554:	89 ab       	std	Y+49, r24	; 0x31
    2556:	9a ab       	std	Y+50, r25	; 0x32
    2558:	ab ab       	std	Y+51, r26	; 0x33
    255a:	bc ab       	std	Y+52, r27	; 0x34
	if (__tmp < 1.0)
    255c:	69 a9       	ldd	r22, Y+49	; 0x31
    255e:	7a a9       	ldd	r23, Y+50	; 0x32
    2560:	8b a9       	ldd	r24, Y+51	; 0x33
    2562:	9c a9       	ldd	r25, Y+52	; 0x34
    2564:	20 e0       	ldi	r18, 0x00	; 0
    2566:	30 e0       	ldi	r19, 0x00	; 0
    2568:	40 e8       	ldi	r20, 0x80	; 128
    256a:	5f e3       	ldi	r21, 0x3F	; 63
    256c:	0e 94 71 03 	call	0x6e2	; 0x6e2 <__ltsf2>
    2570:	88 23       	and	r24, r24
    2572:	2c f4       	brge	.+10     	; 0x257e <LCD_vDisplayChar+0x7c>
		__ticks = 1;
    2574:	81 e0       	ldi	r24, 0x01	; 1
    2576:	90 e0       	ldi	r25, 0x00	; 0
    2578:	98 ab       	std	Y+48, r25	; 0x30
    257a:	8f a7       	std	Y+47, r24	; 0x2f
    257c:	3f c0       	rjmp	.+126    	; 0x25fc <LCD_vDisplayChar+0xfa>
	else if (__tmp > 65535)
    257e:	69 a9       	ldd	r22, Y+49	; 0x31
    2580:	7a a9       	ldd	r23, Y+50	; 0x32
    2582:	8b a9       	ldd	r24, Y+51	; 0x33
    2584:	9c a9       	ldd	r25, Y+52	; 0x34
    2586:	20 e0       	ldi	r18, 0x00	; 0
    2588:	3f ef       	ldi	r19, 0xFF	; 255
    258a:	4f e7       	ldi	r20, 0x7F	; 127
    258c:	57 e4       	ldi	r21, 0x47	; 71
    258e:	0e 94 11 03 	call	0x622	; 0x622 <__gtsf2>
    2592:	18 16       	cp	r1, r24
    2594:	4c f5       	brge	.+82     	; 0x25e8 <LCD_vDisplayChar+0xe6>
	{
		//	__ticks = requested delay in 1/10 ms
		__ticks = (uint16_t) (__ms * 10.0);
    2596:	6d a9       	ldd	r22, Y+53	; 0x35
    2598:	7e a9       	ldd	r23, Y+54	; 0x36
    259a:	8f a9       	ldd	r24, Y+55	; 0x37
    259c:	98 ad       	ldd	r25, Y+56	; 0x38
    259e:	20 e0       	ldi	r18, 0x00	; 0
    25a0:	30 e0       	ldi	r19, 0x00	; 0
    25a2:	40 e2       	ldi	r20, 0x20	; 32
    25a4:	51 e4       	ldi	r21, 0x41	; 65
    25a6:	0e 94 17 02 	call	0x42e	; 0x42e <__mulsf3>
    25aa:	dc 01       	movw	r26, r24
    25ac:	cb 01       	movw	r24, r22
    25ae:	bc 01       	movw	r22, r24
    25b0:	cd 01       	movw	r24, r26
    25b2:	0e 94 41 00 	call	0x82	; 0x82 <__fixunssfsi>
    25b6:	dc 01       	movw	r26, r24
    25b8:	cb 01       	movw	r24, r22
    25ba:	98 ab       	std	Y+48, r25	; 0x30
    25bc:	8f a7       	std	Y+47, r24	; 0x2f
    25be:	0f c0       	rjmp	.+30     	; 0x25de <LCD_vDisplayChar+0xdc>
    25c0:	88 ec       	ldi	r24, 0xC8	; 200
    25c2:	90 e0       	ldi	r25, 0x00	; 0
    25c4:	9e a7       	std	Y+46, r25	; 0x2e
    25c6:	8d a7       	std	Y+45, r24	; 0x2d
    25c8:	8d a5       	ldd	r24, Y+45	; 0x2d
    25ca:	9e a5       	ldd	r25, Y+46	; 0x2e
    25cc:	01 97       	sbiw	r24, 0x01	; 1
    25ce:	f1 f7       	brne	.-4      	; 0x25cc <LCD_vDisplayChar+0xca>
    25d0:	9e a7       	std	Y+46, r25	; 0x2e
    25d2:	8d a7       	std	Y+45, r24	; 0x2d
		while(__ticks)
		{
			// wait 1/10 ms
			_delay_loop_2(((F_CPU) / 4e3) / 10);
			__ticks --;
    25d4:	8f a5       	ldd	r24, Y+47	; 0x2f
    25d6:	98 a9       	ldd	r25, Y+48	; 0x30
    25d8:	01 97       	sbiw	r24, 0x01	; 1
    25da:	98 ab       	std	Y+48, r25	; 0x30
    25dc:	8f a7       	std	Y+47, r24	; 0x2f
		__ticks = 1;
	else if (__tmp > 65535)
	{
		//	__ticks = requested delay in 1/10 ms
		__ticks = (uint16_t) (__ms * 10.0);
		while(__ticks)
    25de:	8f a5       	ldd	r24, Y+47	; 0x2f
    25e0:	98 a9       	ldd	r25, Y+48	; 0x30
    25e2:	00 97       	sbiw	r24, 0x00	; 0
    25e4:	69 f7       	brne	.-38     	; 0x25c0 <LCD_vDisplayChar+0xbe>
    25e6:	14 c0       	rjmp	.+40     	; 0x2610 <LCD_vDisplayChar+0x10e>
			__ticks --;
		}
		return;
	}
	else
		__ticks = (uint16_t)__tmp;
    25e8:	69 a9       	ldd	r22, Y+49	; 0x31
    25ea:	7a a9       	ldd	r23, Y+50	; 0x32
    25ec:	8b a9       	ldd	r24, Y+51	; 0x33
    25ee:	9c a9       	ldd	r25, Y+52	; 0x34
    25f0:	0e 94 41 00 	call	0x82	; 0x82 <__fixunssfsi>
    25f4:	dc 01       	movw	r26, r24
    25f6:	cb 01       	movw	r24, r22
    25f8:	98 ab       	std	Y+48, r25	; 0x30
    25fa:	8f a7       	std	Y+47, r24	; 0x2f
    25fc:	8f a5       	ldd	r24, Y+47	; 0x2f
    25fe:	98 a9       	ldd	r25, Y+48	; 0x30
    2600:	9c a7       	std	Y+44, r25	; 0x2c
    2602:	8b a7       	std	Y+43, r24	; 0x2b
    2604:	8b a5       	ldd	r24, Y+43	; 0x2b
    2606:	9c a5       	ldd	r25, Y+44	; 0x2c
    2608:	01 97       	sbiw	r24, 0x01	; 1
    260a:	f1 f7       	brne	.-4      	; 0x2608 <LCD_vDisplayChar+0x106>
    260c:	9c a7       	std	Y+44, r25	; 0x2c
    260e:	8b a7       	std	Y+43, r24	; 0x2b
	_delay_ms(50);
	DIO_vSetPinVal(LCD_CTRL_PORT,PIN_EN,HIGH);
    2610:	83 e0       	ldi	r24, 0x03	; 3
    2612:	62 e0       	ldi	r22, 0x02	; 2
    2614:	41 e0       	ldi	r20, 0x01	; 1
    2616:	0e 94 fb 06 	call	0xdf6	; 0xdf6 <DIO_vSetPinVal>
    261a:	80 e0       	ldi	r24, 0x00	; 0
    261c:	90 e0       	ldi	r25, 0x00	; 0
    261e:	a8 e4       	ldi	r26, 0x48	; 72
    2620:	b2 e4       	ldi	r27, 0x42	; 66
    2622:	8f a3       	std	Y+39, r24	; 0x27
    2624:	98 a7       	std	Y+40, r25	; 0x28
    2626:	a9 a7       	std	Y+41, r26	; 0x29
    2628:	ba a7       	std	Y+42, r27	; 0x2a
 */
void
_delay_ms(double __ms)
{
	uint16_t __ticks;
	double __tmp = ((F_CPU) / 4e3) * __ms;
    262a:	6f a1       	ldd	r22, Y+39	; 0x27
    262c:	78 a5       	ldd	r23, Y+40	; 0x28
    262e:	89 a5       	ldd	r24, Y+41	; 0x29
    2630:	9a a5       	ldd	r25, Y+42	; 0x2a
    2632:	20 e0       	ldi	r18, 0x00	; 0
    2634:	30 e0       	ldi	r19, 0x00	; 0
    2636:	4a ef       	ldi	r20, 0xFA	; 250
    2638:	54 e4       	ldi	r21, 0x44	; 68
    263a:	0e 94 17 02 	call	0x42e	; 0x42e <__mulsf3>
    263e:	dc 01       	movw	r26, r24
    2640:	cb 01       	movw	r24, r22
    2642:	8b a3       	std	Y+35, r24	; 0x23
    2644:	9c a3       	std	Y+36, r25	; 0x24
    2646:	ad a3       	std	Y+37, r26	; 0x25
    2648:	be a3       	std	Y+38, r27	; 0x26
	if (__tmp < 1.0)
    264a:	6b a1       	ldd	r22, Y+35	; 0x23
    264c:	7c a1       	ldd	r23, Y+36	; 0x24
    264e:	8d a1       	ldd	r24, Y+37	; 0x25
    2650:	9e a1       	ldd	r25, Y+38	; 0x26
    2652:	20 e0       	ldi	r18, 0x00	; 0
    2654:	30 e0       	ldi	r19, 0x00	; 0
    2656:	40 e8       	ldi	r20, 0x80	; 128
    2658:	5f e3       	ldi	r21, 0x3F	; 63
    265a:	0e 94 71 03 	call	0x6e2	; 0x6e2 <__ltsf2>
    265e:	88 23       	and	r24, r24
    2660:	2c f4       	brge	.+10     	; 0x266c <LCD_vDisplayChar+0x16a>
		__ticks = 1;
    2662:	81 e0       	ldi	r24, 0x01	; 1
    2664:	90 e0       	ldi	r25, 0x00	; 0
    2666:	9a a3       	std	Y+34, r25	; 0x22
    2668:	89 a3       	std	Y+33, r24	; 0x21
    266a:	3f c0       	rjmp	.+126    	; 0x26ea <LCD_vDisplayChar+0x1e8>
	else if (__tmp > 65535)
    266c:	6b a1       	ldd	r22, Y+35	; 0x23
    266e:	7c a1       	ldd	r23, Y+36	; 0x24
    2670:	8d a1       	ldd	r24, Y+37	; 0x25
    2672:	9e a1       	ldd	r25, Y+38	; 0x26
    2674:	20 e0       	ldi	r18, 0x00	; 0
    2676:	3f ef       	ldi	r19, 0xFF	; 255
    2678:	4f e7       	ldi	r20, 0x7F	; 127
    267a:	57 e4       	ldi	r21, 0x47	; 71
    267c:	0e 94 11 03 	call	0x622	; 0x622 <__gtsf2>
    2680:	18 16       	cp	r1, r24
    2682:	4c f5       	brge	.+82     	; 0x26d6 <LCD_vDisplayChar+0x1d4>
	{
		//	__ticks = requested delay in 1/10 ms
		__ticks = (uint16_t) (__ms * 10.0);
    2684:	6f a1       	ldd	r22, Y+39	; 0x27
    2686:	78 a5       	ldd	r23, Y+40	; 0x28
    2688:	89 a5       	ldd	r24, Y+41	; 0x29
    268a:	9a a5       	ldd	r25, Y+42	; 0x2a
    268c:	20 e0       	ldi	r18, 0x00	; 0
    268e:	30 e0       	ldi	r19, 0x00	; 0
    2690:	40 e2       	ldi	r20, 0x20	; 32
    2692:	51 e4       	ldi	r21, 0x41	; 65
    2694:	0e 94 17 02 	call	0x42e	; 0x42e <__mulsf3>
    2698:	dc 01       	movw	r26, r24
    269a:	cb 01       	movw	r24, r22
    269c:	bc 01       	movw	r22, r24
    269e:	cd 01       	movw	r24, r26
    26a0:	0e 94 41 00 	call	0x82	; 0x82 <__fixunssfsi>
    26a4:	dc 01       	movw	r26, r24
    26a6:	cb 01       	movw	r24, r22
    26a8:	9a a3       	std	Y+34, r25	; 0x22
    26aa:	89 a3       	std	Y+33, r24	; 0x21
    26ac:	0f c0       	rjmp	.+30     	; 0x26cc <LCD_vDisplayChar+0x1ca>
    26ae:	88 ec       	ldi	r24, 0xC8	; 200
    26b0:	90 e0       	ldi	r25, 0x00	; 0
    26b2:	98 a3       	std	Y+32, r25	; 0x20
    26b4:	8f 8f       	std	Y+31, r24	; 0x1f
    26b6:	8f 8d       	ldd	r24, Y+31	; 0x1f
    26b8:	98 a1       	ldd	r25, Y+32	; 0x20
    26ba:	01 97       	sbiw	r24, 0x01	; 1
    26bc:	f1 f7       	brne	.-4      	; 0x26ba <LCD_vDisplayChar+0x1b8>
    26be:	98 a3       	std	Y+32, r25	; 0x20
    26c0:	8f 8f       	std	Y+31, r24	; 0x1f
		while(__ticks)
		{
			// wait 1/10 ms
			_delay_loop_2(((F_CPU) / 4e3) / 10);
			__ticks --;
    26c2:	89 a1       	ldd	r24, Y+33	; 0x21
    26c4:	9a a1       	ldd	r25, Y+34	; 0x22
    26c6:	01 97       	sbiw	r24, 0x01	; 1
    26c8:	9a a3       	std	Y+34, r25	; 0x22
    26ca:	89 a3       	std	Y+33, r24	; 0x21
		__ticks = 1;
	else if (__tmp > 65535)
	{
		//	__ticks = requested delay in 1/10 ms
		__ticks = (uint16_t) (__ms * 10.0);
		while(__ticks)
    26cc:	89 a1       	ldd	r24, Y+33	; 0x21
    26ce:	9a a1       	ldd	r25, Y+34	; 0x22
    26d0:	00 97       	sbiw	r24, 0x00	; 0
    26d2:	69 f7       	brne	.-38     	; 0x26ae <LCD_vDisplayChar+0x1ac>
    26d4:	14 c0       	rjmp	.+40     	; 0x26fe <LCD_vDisplayChar+0x1fc>
			__ticks --;
		}
		return;
	}
	else
		__ticks = (uint16_t)__tmp;
    26d6:	6b a1       	ldd	r22, Y+35	; 0x23
    26d8:	7c a1       	ldd	r23, Y+36	; 0x24
    26da:	8d a1       	ldd	r24, Y+37	; 0x25
    26dc:	9e a1       	ldd	r25, Y+38	; 0x26
    26de:	0e 94 41 00 	call	0x82	; 0x82 <__fixunssfsi>
    26e2:	dc 01       	movw	r26, r24
    26e4:	cb 01       	movw	r24, r22
    26e6:	9a a3       	std	Y+34, r25	; 0x22
    26e8:	89 a3       	std	Y+33, r24	; 0x21
    26ea:	89 a1       	ldd	r24, Y+33	; 0x21
    26ec:	9a a1       	ldd	r25, Y+34	; 0x22
    26ee:	9e 8f       	std	Y+30, r25	; 0x1e
    26f0:	8d 8f       	std	Y+29, r24	; 0x1d
    26f2:	8d 8d       	ldd	r24, Y+29	; 0x1d
    26f4:	9e 8d       	ldd	r25, Y+30	; 0x1e
    26f6:	01 97       	sbiw	r24, 0x01	; 1
    26f8:	f1 f7       	brne	.-4      	; 0x26f6 <LCD_vDisplayChar+0x1f4>
    26fa:	9e 8f       	std	Y+30, r25	; 0x1e
    26fc:	8d 8f       	std	Y+29, r24	; 0x1d
	_delay_ms(50);
	DIO_vSetGroupPinCmd(LCD_DATA_PORT,Copy_Uchar8_tChar);
    26fe:	84 e0       	ldi	r24, 0x04	; 4
    2700:	69 ad       	ldd	r22, Y+57	; 0x39
    2702:	0e 94 6d 09 	call	0x12da	; 0x12da <DIO_vSetGroupPinCmd>
    2706:	80 e0       	ldi	r24, 0x00	; 0
    2708:	90 e0       	ldi	r25, 0x00	; 0
    270a:	a8 e4       	ldi	r26, 0x48	; 72
    270c:	b2 e4       	ldi	r27, 0x42	; 66
    270e:	89 8f       	std	Y+25, r24	; 0x19
    2710:	9a 8f       	std	Y+26, r25	; 0x1a
    2712:	ab 8f       	std	Y+27, r26	; 0x1b
    2714:	bc 8f       	std	Y+28, r27	; 0x1c
 */
void
_delay_ms(double __ms)
{
	uint16_t __ticks;
	double __tmp = ((F_CPU) / 4e3) * __ms;
    2716:	69 8d       	ldd	r22, Y+25	; 0x19
    2718:	7a 8d       	ldd	r23, Y+26	; 0x1a
    271a:	8b 8d       	ldd	r24, Y+27	; 0x1b
    271c:	9c 8d       	ldd	r25, Y+28	; 0x1c
    271e:	20 e0       	ldi	r18, 0x00	; 0
    2720:	30 e0       	ldi	r19, 0x00	; 0
    2722:	4a ef       	ldi	r20, 0xFA	; 250
    2724:	54 e4       	ldi	r21, 0x44	; 68
    2726:	0e 94 17 02 	call	0x42e	; 0x42e <__mulsf3>
    272a:	dc 01       	movw	r26, r24
    272c:	cb 01       	movw	r24, r22
    272e:	8d 8b       	std	Y+21, r24	; 0x15
    2730:	9e 8b       	std	Y+22, r25	; 0x16
    2732:	af 8b       	std	Y+23, r26	; 0x17
    2734:	b8 8f       	std	Y+24, r27	; 0x18
	if (__tmp < 1.0)
    2736:	6d 89       	ldd	r22, Y+21	; 0x15
    2738:	7e 89       	ldd	r23, Y+22	; 0x16
    273a:	8f 89       	ldd	r24, Y+23	; 0x17
    273c:	98 8d       	ldd	r25, Y+24	; 0x18
    273e:	20 e0       	ldi	r18, 0x00	; 0
    2740:	30 e0       	ldi	r19, 0x00	; 0
    2742:	40 e8       	ldi	r20, 0x80	; 128
    2744:	5f e3       	ldi	r21, 0x3F	; 63
    2746:	0e 94 71 03 	call	0x6e2	; 0x6e2 <__ltsf2>
    274a:	88 23       	and	r24, r24
    274c:	2c f4       	brge	.+10     	; 0x2758 <LCD_vDisplayChar+0x256>
		__ticks = 1;
    274e:	81 e0       	ldi	r24, 0x01	; 1
    2750:	90 e0       	ldi	r25, 0x00	; 0
    2752:	9c 8b       	std	Y+20, r25	; 0x14
    2754:	8b 8b       	std	Y+19, r24	; 0x13
    2756:	3f c0       	rjmp	.+126    	; 0x27d6 <LCD_vDisplayChar+0x2d4>
	else if (__tmp > 65535)
    2758:	6d 89       	ldd	r22, Y+21	; 0x15
    275a:	7e 89       	ldd	r23, Y+22	; 0x16
    275c:	8f 89       	ldd	r24, Y+23	; 0x17
    275e:	98 8d       	ldd	r25, Y+24	; 0x18
    2760:	20 e0       	ldi	r18, 0x00	; 0
    2762:	3f ef       	ldi	r19, 0xFF	; 255
    2764:	4f e7       	ldi	r20, 0x7F	; 127
    2766:	57 e4       	ldi	r21, 0x47	; 71
    2768:	0e 94 11 03 	call	0x622	; 0x622 <__gtsf2>
    276c:	18 16       	cp	r1, r24
    276e:	4c f5       	brge	.+82     	; 0x27c2 <LCD_vDisplayChar+0x2c0>
	{
		//	__ticks = requested delay in 1/10 ms
		__ticks = (uint16_t) (__ms * 10.0);
    2770:	69 8d       	ldd	r22, Y+25	; 0x19
    2772:	7a 8d       	ldd	r23, Y+26	; 0x1a
    2774:	8b 8d       	ldd	r24, Y+27	; 0x1b
    2776:	9c 8d       	ldd	r25, Y+28	; 0x1c
    2778:	20 e0       	ldi	r18, 0x00	; 0
    277a:	30 e0       	ldi	r19, 0x00	; 0
    277c:	40 e2       	ldi	r20, 0x20	; 32
    277e:	51 e4       	ldi	r21, 0x41	; 65
    2780:	0e 94 17 02 	call	0x42e	; 0x42e <__mulsf3>
    2784:	dc 01       	movw	r26, r24
    2786:	cb 01       	movw	r24, r22
    2788:	bc 01       	movw	r22, r24
    278a:	cd 01       	movw	r24, r26
    278c:	0e 94 41 00 	call	0x82	; 0x82 <__fixunssfsi>
    2790:	dc 01       	movw	r26, r24
    2792:	cb 01       	movw	r24, r22
    2794:	9c 8b       	std	Y+20, r25	; 0x14
    2796:	8b 8b       	std	Y+19, r24	; 0x13
    2798:	0f c0       	rjmp	.+30     	; 0x27b8 <LCD_vDisplayChar+0x2b6>
    279a:	88 ec       	ldi	r24, 0xC8	; 200
    279c:	90 e0       	ldi	r25, 0x00	; 0
    279e:	9a 8b       	std	Y+18, r25	; 0x12
    27a0:	89 8b       	std	Y+17, r24	; 0x11
    27a2:	89 89       	ldd	r24, Y+17	; 0x11
    27a4:	9a 89       	ldd	r25, Y+18	; 0x12
    27a6:	01 97       	sbiw	r24, 0x01	; 1
    27a8:	f1 f7       	brne	.-4      	; 0x27a6 <LCD_vDisplayChar+0x2a4>
    27aa:	9a 8b       	std	Y+18, r25	; 0x12
    27ac:	89 8b       	std	Y+17, r24	; 0x11
		while(__ticks)
		{
			// wait 1/10 ms
			_delay_loop_2(((F_CPU) / 4e3) / 10);
			__ticks --;
    27ae:	8b 89       	ldd	r24, Y+19	; 0x13
    27b0:	9c 89       	ldd	r25, Y+20	; 0x14
    27b2:	01 97       	sbiw	r24, 0x01	; 1
    27b4:	9c 8b       	std	Y+20, r25	; 0x14
    27b6:	8b 8b       	std	Y+19, r24	; 0x13
		__ticks = 1;
	else if (__tmp > 65535)
	{
		//	__ticks = requested delay in 1/10 ms
		__ticks = (uint16_t) (__ms * 10.0);
		while(__ticks)
    27b8:	8b 89       	ldd	r24, Y+19	; 0x13
    27ba:	9c 89       	ldd	r25, Y+20	; 0x14
    27bc:	00 97       	sbiw	r24, 0x00	; 0
    27be:	69 f7       	brne	.-38     	; 0x279a <LCD_vDisplayChar+0x298>
    27c0:	14 c0       	rjmp	.+40     	; 0x27ea <LCD_vDisplayChar+0x2e8>
			__ticks --;
		}
		return;
	}
	else
		__ticks = (uint16_t)__tmp;
    27c2:	6d 89       	ldd	r22, Y+21	; 0x15
    27c4:	7e 89       	ldd	r23, Y+22	; 0x16
    27c6:	8f 89       	ldd	r24, Y+23	; 0x17
    27c8:	98 8d       	ldd	r25, Y+24	; 0x18
    27ca:	0e 94 41 00 	call	0x82	; 0x82 <__fixunssfsi>
    27ce:	dc 01       	movw	r26, r24
    27d0:	cb 01       	movw	r24, r22
    27d2:	9c 8b       	std	Y+20, r25	; 0x14
    27d4:	8b 8b       	std	Y+19, r24	; 0x13
    27d6:	8b 89       	ldd	r24, Y+19	; 0x13
    27d8:	9c 89       	ldd	r25, Y+20	; 0x14
    27da:	98 8b       	std	Y+16, r25	; 0x10
    27dc:	8f 87       	std	Y+15, r24	; 0x0f
    27de:	8f 85       	ldd	r24, Y+15	; 0x0f
    27e0:	98 89       	ldd	r25, Y+16	; 0x10
    27e2:	01 97       	sbiw	r24, 0x01	; 1
    27e4:	f1 f7       	brne	.-4      	; 0x27e2 <LCD_vDisplayChar+0x2e0>
    27e6:	98 8b       	std	Y+16, r25	; 0x10
    27e8:	8f 87       	std	Y+15, r24	; 0x0f
	_delay_ms(50);
	DIO_vSetPinVal(LCD_CTRL_PORT,PIN_EN,LOW);
    27ea:	83 e0       	ldi	r24, 0x03	; 3
    27ec:	62 e0       	ldi	r22, 0x02	; 2
    27ee:	40 e0       	ldi	r20, 0x00	; 0
    27f0:	0e 94 fb 06 	call	0xdf6	; 0xdf6 <DIO_vSetPinVal>
    27f4:	80 e0       	ldi	r24, 0x00	; 0
    27f6:	90 e0       	ldi	r25, 0x00	; 0
    27f8:	a8 e4       	ldi	r26, 0x48	; 72
    27fa:	b2 e4       	ldi	r27, 0x42	; 66
    27fc:	8b 87       	std	Y+11, r24	; 0x0b
    27fe:	9c 87       	std	Y+12, r25	; 0x0c
    2800:	ad 87       	std	Y+13, r26	; 0x0d
    2802:	be 87       	std	Y+14, r27	; 0x0e
 */
void
_delay_ms(double __ms)
{
	uint16_t __ticks;
	double __tmp = ((F_CPU) / 4e3) * __ms;
    2804:	6b 85       	ldd	r22, Y+11	; 0x0b
    2806:	7c 85       	ldd	r23, Y+12	; 0x0c
    2808:	8d 85       	ldd	r24, Y+13	; 0x0d
    280a:	9e 85       	ldd	r25, Y+14	; 0x0e
    280c:	20 e0       	ldi	r18, 0x00	; 0
    280e:	30 e0       	ldi	r19, 0x00	; 0
    2810:	4a ef       	ldi	r20, 0xFA	; 250
    2812:	54 e4       	ldi	r21, 0x44	; 68
    2814:	0e 94 17 02 	call	0x42e	; 0x42e <__mulsf3>
    2818:	dc 01       	movw	r26, r24
    281a:	cb 01       	movw	r24, r22
    281c:	8f 83       	std	Y+7, r24	; 0x07
    281e:	98 87       	std	Y+8, r25	; 0x08
    2820:	a9 87       	std	Y+9, r26	; 0x09
    2822:	ba 87       	std	Y+10, r27	; 0x0a
	if (__tmp < 1.0)
    2824:	6f 81       	ldd	r22, Y+7	; 0x07
    2826:	78 85       	ldd	r23, Y+8	; 0x08
    2828:	89 85       	ldd	r24, Y+9	; 0x09
    282a:	9a 85       	ldd	r25, Y+10	; 0x0a
    282c:	20 e0       	ldi	r18, 0x00	; 0
    282e:	30 e0       	ldi	r19, 0x00	; 0
    2830:	40 e8       	ldi	r20, 0x80	; 128
    2832:	5f e3       	ldi	r21, 0x3F	; 63
    2834:	0e 94 71 03 	call	0x6e2	; 0x6e2 <__ltsf2>
    2838:	88 23       	and	r24, r24
    283a:	2c f4       	brge	.+10     	; 0x2846 <LCD_vDisplayChar+0x344>
		__ticks = 1;
    283c:	81 e0       	ldi	r24, 0x01	; 1
    283e:	90 e0       	ldi	r25, 0x00	; 0
    2840:	9e 83       	std	Y+6, r25	; 0x06
    2842:	8d 83       	std	Y+5, r24	; 0x05
    2844:	3f c0       	rjmp	.+126    	; 0x28c4 <LCD_vDisplayChar+0x3c2>
	else if (__tmp > 65535)
    2846:	6f 81       	ldd	r22, Y+7	; 0x07
    2848:	78 85       	ldd	r23, Y+8	; 0x08
    284a:	89 85       	ldd	r24, Y+9	; 0x09
    284c:	9a 85       	ldd	r25, Y+10	; 0x0a
    284e:	20 e0       	ldi	r18, 0x00	; 0
    2850:	3f ef       	ldi	r19, 0xFF	; 255
    2852:	4f e7       	ldi	r20, 0x7F	; 127
    2854:	57 e4       	ldi	r21, 0x47	; 71
    2856:	0e 94 11 03 	call	0x622	; 0x622 <__gtsf2>
    285a:	18 16       	cp	r1, r24
    285c:	4c f5       	brge	.+82     	; 0x28b0 <LCD_vDisplayChar+0x3ae>
	{
		//	__ticks = requested delay in 1/10 ms
		__ticks = (uint16_t) (__ms * 10.0);
    285e:	6b 85       	ldd	r22, Y+11	; 0x0b
    2860:	7c 85       	ldd	r23, Y+12	; 0x0c
    2862:	8d 85       	ldd	r24, Y+13	; 0x0d
    2864:	9e 85       	ldd	r25, Y+14	; 0x0e
    2866:	20 e0       	ldi	r18, 0x00	; 0
    2868:	30 e0       	ldi	r19, 0x00	; 0
    286a:	40 e2       	ldi	r20, 0x20	; 32
    286c:	51 e4       	ldi	r21, 0x41	; 65
    286e:	0e 94 17 02 	call	0x42e	; 0x42e <__mulsf3>
    2872:	dc 01       	movw	r26, r24
    2874:	cb 01       	movw	r24, r22
    2876:	bc 01       	movw	r22, r24
    2878:	cd 01       	movw	r24, r26
    287a:	0e 94 41 00 	call	0x82	; 0x82 <__fixunssfsi>
    287e:	dc 01       	movw	r26, r24
    2880:	cb 01       	movw	r24, r22
    2882:	9e 83       	std	Y+6, r25	; 0x06
    2884:	8d 83       	std	Y+5, r24	; 0x05
    2886:	0f c0       	rjmp	.+30     	; 0x28a6 <LCD_vDisplayChar+0x3a4>
    2888:	88 ec       	ldi	r24, 0xC8	; 200
    288a:	90 e0       	ldi	r25, 0x00	; 0
    288c:	9c 83       	std	Y+4, r25	; 0x04
    288e:	8b 83       	std	Y+3, r24	; 0x03
    2890:	8b 81       	ldd	r24, Y+3	; 0x03
    2892:	9c 81       	ldd	r25, Y+4	; 0x04
    2894:	01 97       	sbiw	r24, 0x01	; 1
    2896:	f1 f7       	brne	.-4      	; 0x2894 <LCD_vDisplayChar+0x392>
    2898:	9c 83       	std	Y+4, r25	; 0x04
    289a:	8b 83       	std	Y+3, r24	; 0x03
		while(__ticks)
		{
			// wait 1/10 ms
			_delay_loop_2(((F_CPU) / 4e3) / 10);
			__ticks --;
    289c:	8d 81       	ldd	r24, Y+5	; 0x05
    289e:	9e 81       	ldd	r25, Y+6	; 0x06
    28a0:	01 97       	sbiw	r24, 0x01	; 1
    28a2:	9e 83       	std	Y+6, r25	; 0x06
    28a4:	8d 83       	std	Y+5, r24	; 0x05
		__ticks = 1;
	else if (__tmp > 65535)
	{
		//	__ticks = requested delay in 1/10 ms
		__ticks = (uint16_t) (__ms * 10.0);
		while(__ticks)
    28a6:	8d 81       	ldd	r24, Y+5	; 0x05
    28a8:	9e 81       	ldd	r25, Y+6	; 0x06
    28aa:	00 97       	sbiw	r24, 0x00	; 0
    28ac:	69 f7       	brne	.-38     	; 0x2888 <LCD_vDisplayChar+0x386>
    28ae:	14 c0       	rjmp	.+40     	; 0x28d8 <LCD_vDisplayChar+0x3d6>
			__ticks --;
		}
		return;
	}
	else
		__ticks = (uint16_t)__tmp;
    28b0:	6f 81       	ldd	r22, Y+7	; 0x07
    28b2:	78 85       	ldd	r23, Y+8	; 0x08
    28b4:	89 85       	ldd	r24, Y+9	; 0x09
    28b6:	9a 85       	ldd	r25, Y+10	; 0x0a
    28b8:	0e 94 41 00 	call	0x82	; 0x82 <__fixunssfsi>
    28bc:	dc 01       	movw	r26, r24
    28be:	cb 01       	movw	r24, r22
    28c0:	9e 83       	std	Y+6, r25	; 0x06
    28c2:	8d 83       	std	Y+5, r24	; 0x05
    28c4:	8d 81       	ldd	r24, Y+5	; 0x05
    28c6:	9e 81       	ldd	r25, Y+6	; 0x06
    28c8:	9a 83       	std	Y+2, r25	; 0x02
    28ca:	89 83       	std	Y+1, r24	; 0x01
    28cc:	89 81       	ldd	r24, Y+1	; 0x01
    28ce:	9a 81       	ldd	r25, Y+2	; 0x02
    28d0:	01 97       	sbiw	r24, 0x01	; 1
    28d2:	f1 f7       	brne	.-4      	; 0x28d0 <LCD_vDisplayChar+0x3ce>
    28d4:	9a 83       	std	Y+2, r25	; 0x02
    28d6:	89 83       	std	Y+1, r24	; 0x01
	_delay_ms(50);
}
    28d8:	e9 96       	adiw	r28, 0x39	; 57
    28da:	0f b6       	in	r0, 0x3f	; 63
    28dc:	f8 94       	cli
    28de:	de bf       	out	0x3e, r29	; 62
    28e0:	0f be       	out	0x3f, r0	; 63
    28e2:	cd bf       	out	0x3d, r28	; 61
    28e4:	cf 91       	pop	r28
    28e6:	df 91       	pop	r29
    28e8:	08 95       	ret

000028ea <LCD_vDisplayString>:

void LCD_vDisplayString(Uchar8_t *Copy_Uchar8_tString)
{
    28ea:	df 93       	push	r29
    28ec:	cf 93       	push	r28
    28ee:	00 d0       	rcall	.+0      	; 0x28f0 <LCD_vDisplayString+0x6>
    28f0:	0f 92       	push	r0
    28f2:	cd b7       	in	r28, 0x3d	; 61
    28f4:	de b7       	in	r29, 0x3e	; 62
    28f6:	9b 83       	std	Y+3, r25	; 0x03
    28f8:	8a 83       	std	Y+2, r24	; 0x02
	Uchar8_t LOCAL_Uchar8_tStringCounter;
	for(LOCAL_Uchar8_tStringCounter = 0;(*(Copy_Uchar8_tString+LOCAL_Uchar8_tStringCounter))!= '\0';LOCAL_Uchar8_tStringCounter++)
    28fa:	19 82       	std	Y+1, r1	; 0x01
    28fc:	0e c0       	rjmp	.+28     	; 0x291a <LCD_vDisplayString+0x30>
	{
		LCD_vDisplayChar(*(Copy_Uchar8_tString+LOCAL_Uchar8_tStringCounter));
    28fe:	89 81       	ldd	r24, Y+1	; 0x01
    2900:	28 2f       	mov	r18, r24
    2902:	30 e0       	ldi	r19, 0x00	; 0
    2904:	8a 81       	ldd	r24, Y+2	; 0x02
    2906:	9b 81       	ldd	r25, Y+3	; 0x03
    2908:	fc 01       	movw	r30, r24
    290a:	e2 0f       	add	r30, r18
    290c:	f3 1f       	adc	r31, r19
    290e:	80 81       	ld	r24, Z
    2910:	0e 94 81 12 	call	0x2502	; 0x2502 <LCD_vDisplayChar>
}

void LCD_vDisplayString(Uchar8_t *Copy_Uchar8_tString)
{
	Uchar8_t LOCAL_Uchar8_tStringCounter;
	for(LOCAL_Uchar8_tStringCounter = 0;(*(Copy_Uchar8_tString+LOCAL_Uchar8_tStringCounter))!= '\0';LOCAL_Uchar8_tStringCounter++)
    2914:	89 81       	ldd	r24, Y+1	; 0x01
    2916:	8f 5f       	subi	r24, 0xFF	; 255
    2918:	89 83       	std	Y+1, r24	; 0x01
    291a:	89 81       	ldd	r24, Y+1	; 0x01
    291c:	28 2f       	mov	r18, r24
    291e:	30 e0       	ldi	r19, 0x00	; 0
    2920:	8a 81       	ldd	r24, Y+2	; 0x02
    2922:	9b 81       	ldd	r25, Y+3	; 0x03
    2924:	fc 01       	movw	r30, r24
    2926:	e2 0f       	add	r30, r18
    2928:	f3 1f       	adc	r31, r19
    292a:	80 81       	ld	r24, Z
    292c:	88 23       	and	r24, r24
    292e:	39 f7       	brne	.-50     	; 0x28fe <LCD_vDisplayString+0x14>
	{
		LCD_vDisplayChar(*(Copy_Uchar8_tString+LOCAL_Uchar8_tStringCounter));
	}
}
    2930:	0f 90       	pop	r0
    2932:	0f 90       	pop	r0
    2934:	0f 90       	pop	r0
    2936:	cf 91       	pop	r28
    2938:	df 91       	pop	r29
    293a:	08 95       	ret

0000293c <LCD_vDisplayNumber>:

void LCD_vDisplayNumber(Uint16_t Copy_Uchar8_tNumber)
{
    293c:	df 93       	push	r29
    293e:	cf 93       	push	r28
    2940:	cd b7       	in	r28, 0x3d	; 61
    2942:	de b7       	in	r29, 0x3e	; 62
    2944:	68 97       	sbiw	r28, 0x18	; 24
    2946:	0f b6       	in	r0, 0x3f	; 63
    2948:	f8 94       	cli
    294a:	de bf       	out	0x3e, r29	; 62
    294c:	0f be       	out	0x3f, r0	; 63
    294e:	cd bf       	out	0x3d, r28	; 61
    2950:	98 8f       	std	Y+24, r25	; 0x18
    2952:	8f 8b       	std	Y+23, r24	; 0x17
	Uchar8_t LOCAL_Uchar8_tArrayOfDigits[20];
	Uchar8_t LOCAL_Uchar8_tDigitsCounter = 0;
    2954:	1a 82       	std	Y+2, r1	; 0x02
	Schar8_t LOCAL_Schar8_tLoopCounter;
		if (Copy_Uchar8_tNumber == 0)
    2956:	8f 89       	ldd	r24, Y+23	; 0x17
    2958:	98 8d       	ldd	r25, Y+24	; 0x18
    295a:	00 97       	sbiw	r24, 0x00	; 0
    295c:	09 f5       	brne	.+66     	; 0x29a0 <LCD_vDisplayNumber+0x64>
		{
			LCD_vDisplayChar('0');
    295e:	80 e3       	ldi	r24, 0x30	; 48
    2960:	0e 94 81 12 	call	0x2502	; 0x2502 <LCD_vDisplayChar>
    2964:	39 c0       	rjmp	.+114    	; 0x29d8 <LCD_vDisplayNumber+0x9c>
		}
		else
		{
			while(Copy_Uchar8_tNumber != 0)
			{
				LOCAL_Uchar8_tArrayOfDigits[LOCAL_Uchar8_tDigitsCounter] = Copy_Uchar8_tNumber % 10;
    2966:	8a 81       	ldd	r24, Y+2	; 0x02
    2968:	e8 2f       	mov	r30, r24
    296a:	f0 e0       	ldi	r31, 0x00	; 0
    296c:	8f 89       	ldd	r24, Y+23	; 0x17
    296e:	98 8d       	ldd	r25, Y+24	; 0x18
    2970:	2a e0       	ldi	r18, 0x0A	; 10
    2972:	30 e0       	ldi	r19, 0x00	; 0
    2974:	b9 01       	movw	r22, r18
    2976:	0e 94 c5 18 	call	0x318a	; 0x318a <__udivmodhi4>
    297a:	28 2f       	mov	r18, r24
    297c:	ce 01       	movw	r24, r28
    297e:	03 96       	adiw	r24, 0x03	; 3
    2980:	e8 0f       	add	r30, r24
    2982:	f9 1f       	adc	r31, r25
    2984:	20 83       	st	Z, r18
				Copy_Uchar8_tNumber /=10;
    2986:	8f 89       	ldd	r24, Y+23	; 0x17
    2988:	98 8d       	ldd	r25, Y+24	; 0x18
    298a:	2a e0       	ldi	r18, 0x0A	; 10
    298c:	30 e0       	ldi	r19, 0x00	; 0
    298e:	b9 01       	movw	r22, r18
    2990:	0e 94 c5 18 	call	0x318a	; 0x318a <__udivmodhi4>
    2994:	cb 01       	movw	r24, r22
    2996:	98 8f       	std	Y+24, r25	; 0x18
    2998:	8f 8b       	std	Y+23, r24	; 0x17
				LOCAL_Uchar8_tDigitsCounter++;
    299a:	8a 81       	ldd	r24, Y+2	; 0x02
    299c:	8f 5f       	subi	r24, 0xFF	; 255
    299e:	8a 83       	std	Y+2, r24	; 0x02
		{
			LCD_vDisplayChar('0');
		}
		else
		{
			while(Copy_Uchar8_tNumber != 0)
    29a0:	8f 89       	ldd	r24, Y+23	; 0x17
    29a2:	98 8d       	ldd	r25, Y+24	; 0x18
    29a4:	00 97       	sbiw	r24, 0x00	; 0
    29a6:	f9 f6       	brne	.-66     	; 0x2966 <LCD_vDisplayNumber+0x2a>
			{
				LOCAL_Uchar8_tArrayOfDigits[LOCAL_Uchar8_tDigitsCounter] = Copy_Uchar8_tNumber % 10;
				Copy_Uchar8_tNumber /=10;
				LOCAL_Uchar8_tDigitsCounter++;
			}
			for(LOCAL_Schar8_tLoopCounter = LOCAL_Uchar8_tDigitsCounter-1;LOCAL_Schar8_tLoopCounter>=0;LOCAL_Schar8_tLoopCounter--)
    29a8:	8a 81       	ldd	r24, Y+2	; 0x02
    29aa:	81 50       	subi	r24, 0x01	; 1
    29ac:	89 83       	std	Y+1, r24	; 0x01
    29ae:	11 c0       	rjmp	.+34     	; 0x29d2 <LCD_vDisplayNumber+0x96>
			{
				LCD_vDisplayChar(LOCAL_Uchar8_tArrayOfDigits[LOCAL_Schar8_tLoopCounter]+48);
    29b0:	89 81       	ldd	r24, Y+1	; 0x01
    29b2:	28 2f       	mov	r18, r24
    29b4:	33 27       	eor	r19, r19
    29b6:	27 fd       	sbrc	r18, 7
    29b8:	30 95       	com	r19
    29ba:	ce 01       	movw	r24, r28
    29bc:	03 96       	adiw	r24, 0x03	; 3
    29be:	fc 01       	movw	r30, r24
    29c0:	e2 0f       	add	r30, r18
    29c2:	f3 1f       	adc	r31, r19
    29c4:	80 81       	ld	r24, Z
    29c6:	80 5d       	subi	r24, 0xD0	; 208
    29c8:	0e 94 81 12 	call	0x2502	; 0x2502 <LCD_vDisplayChar>
			{
				LOCAL_Uchar8_tArrayOfDigits[LOCAL_Uchar8_tDigitsCounter] = Copy_Uchar8_tNumber % 10;
				Copy_Uchar8_tNumber /=10;
				LOCAL_Uchar8_tDigitsCounter++;
			}
			for(LOCAL_Schar8_tLoopCounter = LOCAL_Uchar8_tDigitsCounter-1;LOCAL_Schar8_tLoopCounter>=0;LOCAL_Schar8_tLoopCounter--)
    29cc:	89 81       	ldd	r24, Y+1	; 0x01
    29ce:	81 50       	subi	r24, 0x01	; 1
    29d0:	89 83       	std	Y+1, r24	; 0x01
    29d2:	89 81       	ldd	r24, Y+1	; 0x01
    29d4:	88 23       	and	r24, r24
    29d6:	64 f7       	brge	.-40     	; 0x29b0 <LCD_vDisplayNumber+0x74>
			{
				LCD_vDisplayChar(LOCAL_Uchar8_tArrayOfDigits[LOCAL_Schar8_tLoopCounter]+48);
			}
		}
}
    29d8:	68 96       	adiw	r28, 0x18	; 24
    29da:	0f b6       	in	r0, 0x3f	; 63
    29dc:	f8 94       	cli
    29de:	de bf       	out	0x3e, r29	; 62
    29e0:	0f be       	out	0x3f, r0	; 63
    29e2:	cd bf       	out	0x3d, r28	; 61
    29e4:	cf 91       	pop	r28
    29e6:	df 91       	pop	r29
    29e8:	08 95       	ret

000029ea <LCD_vCursorPosation>:

void LCD_vCursorPosation(Uchar8_t Copy_Uchar8_tRow,Uchar8_t Copy_Uchar8_tColumn)
{
    29ea:	df 93       	push	r29
    29ec:	cf 93       	push	r28
    29ee:	00 d0       	rcall	.+0      	; 0x29f0 <LCD_vCursorPosation+0x6>
    29f0:	cd b7       	in	r28, 0x3d	; 61
    29f2:	de b7       	in	r29, 0x3e	; 62
    29f4:	89 83       	std	Y+1, r24	; 0x01
    29f6:	6a 83       	std	Y+2, r22	; 0x02
	if (Copy_Uchar8_tRow == 0 && Copy_Uchar8_tColumn<16)
    29f8:	89 81       	ldd	r24, Y+1	; 0x01
    29fa:	88 23       	and	r24, r24
    29fc:	49 f4       	brne	.+18     	; 0x2a10 <LCD_vCursorPosation+0x26>
    29fe:	8a 81       	ldd	r24, Y+2	; 0x02
    2a00:	80 31       	cpi	r24, 0x10	; 16
    2a02:	30 f4       	brcc	.+12     	; 0x2a10 <LCD_vCursorPosation+0x26>
	LCD_vSendCmd((Copy_Uchar8_tColumn & 0x0F)|0x80);
    2a04:	8a 81       	ldd	r24, Y+2	; 0x02
    2a06:	8f 70       	andi	r24, 0x0F	; 15
    2a08:	80 68       	ori	r24, 0x80	; 128
    2a0a:	0e 94 8d 10 	call	0x211a	; 0x211a <LCD_vSendCmd>
    2a0e:	0b c0       	rjmp	.+22     	; 0x2a26 <LCD_vCursorPosation+0x3c>
	else if (Copy_Uchar8_tRow == 1 && Copy_Uchar8_tColumn<16)
    2a10:	89 81       	ldd	r24, Y+1	; 0x01
    2a12:	81 30       	cpi	r24, 0x01	; 1
    2a14:	41 f4       	brne	.+16     	; 0x2a26 <LCD_vCursorPosation+0x3c>
    2a16:	8a 81       	ldd	r24, Y+2	; 0x02
    2a18:	80 31       	cpi	r24, 0x10	; 16
    2a1a:	28 f4       	brcc	.+10     	; 0x2a26 <LCD_vCursorPosation+0x3c>
	LCD_vSendCmd((Copy_Uchar8_tColumn & 0x0F)|0xC0);
    2a1c:	8a 81       	ldd	r24, Y+2	; 0x02
    2a1e:	8f 70       	andi	r24, 0x0F	; 15
    2a20:	80 6c       	ori	r24, 0xC0	; 192
    2a22:	0e 94 8d 10 	call	0x211a	; 0x211a <LCD_vSendCmd>
}
    2a26:	0f 90       	pop	r0
    2a28:	0f 90       	pop	r0
    2a2a:	cf 91       	pop	r28
    2a2c:	df 91       	pop	r29
    2a2e:	08 95       	ret

00002a30 <LCD_vShiftingDisplay>:

void LCD_vShiftingDisplay(Uchar8_t Copy_Uchar8_tShiftItirations,Uchar8_t Copy_Uchar8_tShiftDirection)
{
    2a30:	df 93       	push	r29
    2a32:	cf 93       	push	r28
    2a34:	00 d0       	rcall	.+0      	; 0x2a36 <LCD_vShiftingDisplay+0x6>
    2a36:	0f 92       	push	r0
    2a38:	cd b7       	in	r28, 0x3d	; 61
    2a3a:	de b7       	in	r29, 0x3e	; 62
    2a3c:	8a 83       	std	Y+2, r24	; 0x02
    2a3e:	6b 83       	std	Y+3, r22	; 0x03
	Uchar8_t LOCAL_Uchar8_tLoopCounter;
	for(LOCAL_Uchar8_tLoopCounter = 0;LOCAL_Uchar8_tLoopCounter<Copy_Uchar8_tShiftItirations;LOCAL_Uchar8_tLoopCounter++)
    2a40:	19 82       	std	Y+1, r1	; 0x01
    2a42:	06 c0       	rjmp	.+12     	; 0x2a50 <LCD_vShiftingDisplay+0x20>
	{
		LCD_vSendCmd(Copy_Uchar8_tShiftDirection);
    2a44:	8b 81       	ldd	r24, Y+3	; 0x03
    2a46:	0e 94 8d 10 	call	0x211a	; 0x211a <LCD_vSendCmd>
}

void LCD_vShiftingDisplay(Uchar8_t Copy_Uchar8_tShiftItirations,Uchar8_t Copy_Uchar8_tShiftDirection)
{
	Uchar8_t LOCAL_Uchar8_tLoopCounter;
	for(LOCAL_Uchar8_tLoopCounter = 0;LOCAL_Uchar8_tLoopCounter<Copy_Uchar8_tShiftItirations;LOCAL_Uchar8_tLoopCounter++)
    2a4a:	89 81       	ldd	r24, Y+1	; 0x01
    2a4c:	8f 5f       	subi	r24, 0xFF	; 255
    2a4e:	89 83       	std	Y+1, r24	; 0x01
    2a50:	99 81       	ldd	r25, Y+1	; 0x01
    2a52:	8a 81       	ldd	r24, Y+2	; 0x02
    2a54:	98 17       	cp	r25, r24
    2a56:	b0 f3       	brcs	.-20     	; 0x2a44 <LCD_vShiftingDisplay+0x14>
	{
		LCD_vSendCmd(Copy_Uchar8_tShiftDirection);
	}
}
    2a58:	0f 90       	pop	r0
    2a5a:	0f 90       	pop	r0
    2a5c:	0f 90       	pop	r0
    2a5e:	cf 91       	pop	r28
    2a60:	df 91       	pop	r29
    2a62:	08 95       	ret

00002a64 <LCD_vPrintNewChar>:

void LCD_vPrintNewChar(Uchar8_t *Copy_Uchar8_tArrayOfChar , Uchar8_t Copy_Uchar8_tCgramPosition)
{
    2a64:	df 93       	push	r29
    2a66:	cf 93       	push	r28
    2a68:	00 d0       	rcall	.+0      	; 0x2a6a <LCD_vPrintNewChar+0x6>
    2a6a:	00 d0       	rcall	.+0      	; 0x2a6c <LCD_vPrintNewChar+0x8>
    2a6c:	cd b7       	in	r28, 0x3d	; 61
    2a6e:	de b7       	in	r29, 0x3e	; 62
    2a70:	9b 83       	std	Y+3, r25	; 0x03
    2a72:	8a 83       	std	Y+2, r24	; 0x02
    2a74:	6c 83       	std	Y+4, r22	; 0x04
	Uchar8_t LOCAL_Uchar8_tLoopCounter;
	if(Copy_Uchar8_tCgramPosition<8)
    2a76:	8c 81       	ldd	r24, Y+4	; 0x04
    2a78:	88 30       	cpi	r24, 0x08	; 8
    2a7a:	f8 f4       	brcc	.+62     	; 0x2aba <LCD_vPrintNewChar+0x56>
	{
		LCD_vSendCmd(SET_CGRAM_LOCATION|(Copy_Uchar8_tCgramPosition*8));
    2a7c:	8c 81       	ldd	r24, Y+4	; 0x04
    2a7e:	88 2f       	mov	r24, r24
    2a80:	90 e0       	ldi	r25, 0x00	; 0
    2a82:	88 0f       	add	r24, r24
    2a84:	99 1f       	adc	r25, r25
    2a86:	88 0f       	add	r24, r24
    2a88:	99 1f       	adc	r25, r25
    2a8a:	88 0f       	add	r24, r24
    2a8c:	99 1f       	adc	r25, r25
    2a8e:	80 64       	ori	r24, 0x40	; 64
    2a90:	0e 94 8d 10 	call	0x211a	; 0x211a <LCD_vSendCmd>
		for(LOCAL_Uchar8_tLoopCounter = 0;LOCAL_Uchar8_tLoopCounter<8;LOCAL_Uchar8_tLoopCounter++)
    2a94:	19 82       	std	Y+1, r1	; 0x01
    2a96:	0e c0       	rjmp	.+28     	; 0x2ab4 <LCD_vPrintNewChar+0x50>
		LCD_vDisplayChar(Copy_Uchar8_tArrayOfChar[LOCAL_Uchar8_tLoopCounter]);
    2a98:	89 81       	ldd	r24, Y+1	; 0x01
    2a9a:	28 2f       	mov	r18, r24
    2a9c:	30 e0       	ldi	r19, 0x00	; 0
    2a9e:	8a 81       	ldd	r24, Y+2	; 0x02
    2aa0:	9b 81       	ldd	r25, Y+3	; 0x03
    2aa2:	fc 01       	movw	r30, r24
    2aa4:	e2 0f       	add	r30, r18
    2aa6:	f3 1f       	adc	r31, r19
    2aa8:	80 81       	ld	r24, Z
    2aaa:	0e 94 81 12 	call	0x2502	; 0x2502 <LCD_vDisplayChar>
{
	Uchar8_t LOCAL_Uchar8_tLoopCounter;
	if(Copy_Uchar8_tCgramPosition<8)
	{
		LCD_vSendCmd(SET_CGRAM_LOCATION|(Copy_Uchar8_tCgramPosition*8));
		for(LOCAL_Uchar8_tLoopCounter = 0;LOCAL_Uchar8_tLoopCounter<8;LOCAL_Uchar8_tLoopCounter++)
    2aae:	89 81       	ldd	r24, Y+1	; 0x01
    2ab0:	8f 5f       	subi	r24, 0xFF	; 255
    2ab2:	89 83       	std	Y+1, r24	; 0x01
    2ab4:	89 81       	ldd	r24, Y+1	; 0x01
    2ab6:	88 30       	cpi	r24, 0x08	; 8
    2ab8:	78 f3       	brcs	.-34     	; 0x2a98 <LCD_vPrintNewChar+0x34>
		LCD_vDisplayChar(Copy_Uchar8_tArrayOfChar[LOCAL_Uchar8_tLoopCounter]);
	}
	LCD_vSendCmd(SET_CURSOR_LOCATION);
    2aba:	80 e8       	ldi	r24, 0x80	; 128
    2abc:	0e 94 8d 10 	call	0x211a	; 0x211a <LCD_vSendCmd>
}
    2ac0:	0f 90       	pop	r0
    2ac2:	0f 90       	pop	r0
    2ac4:	0f 90       	pop	r0
    2ac6:	0f 90       	pop	r0
    2ac8:	cf 91       	pop	r28
    2aca:	df 91       	pop	r29
    2acc:	08 95       	ret

00002ace <KP_vInitKeyPad>:

const Uchar8_t GLOBAL_Uchar8_tAcolNumber[4] = {KP_C1,KP_C2,KP_C3,KP_C4};


void KP_vInitKeyPad(void)
{
    2ace:	df 93       	push	r29
    2ad0:	cf 93       	push	r28
    2ad2:	cd b7       	in	r28, 0x3d	; 61
    2ad4:	de b7       	in	r29, 0x3e	; 62
	DIO_vSet4LsbPinDir(KP_PORT,OUTPUT);
    2ad6:	83 e0       	ldi	r24, 0x03	; 3
    2ad8:	61 e0       	ldi	r22, 0x01	; 1
    2ada:	0e 94 0f 0a 	call	0x141e	; 0x141e <DIO_vSet4LsbPinDir>
	DIO_vSet4MsbPinDir(KP_PORT,INPUT);
    2ade:	83 e0       	ldi	r24, 0x03	; 3
    2ae0:	60 e0       	ldi	r22, 0x00	; 0
    2ae2:	0e 94 41 0b 	call	0x1682	; 0x1682 <DIO_vSet4MsbPinDir>
	DIO_vSet4MsbPinVal(KP_PORT,HIGH);
    2ae6:	83 e0       	ldi	r24, 0x03	; 3
    2ae8:	61 e0       	ldi	r22, 0x01	; 1
    2aea:	0e 94 da 0b 	call	0x17b4	; 0x17b4 <DIO_vSet4MsbPinVal>
}
    2aee:	cf 91       	pop	r28
    2af0:	df 91       	pop	r29
    2af2:	08 95       	ret

00002af4 <KPD_vGetPressedKey>:


void KPD_vGetPressedKey(Uchar8_t *Copy_Uchar8_tPressedKey)
{
    2af4:	df 93       	push	r29
    2af6:	cf 93       	push	r28
    2af8:	cd b7       	in	r28, 0x3d	; 61
    2afa:	de b7       	in	r29, 0x3e	; 62
    2afc:	64 97       	sbiw	r28, 0x14	; 20
    2afe:	0f b6       	in	r0, 0x3f	; 63
    2b00:	f8 94       	cli
    2b02:	de bf       	out	0x3e, r29	; 62
    2b04:	0f be       	out	0x3f, r0	; 63
    2b06:	cd bf       	out	0x3d, r28	; 61
    2b08:	9c 8b       	std	Y+20, r25	; 0x14
    2b0a:	8b 8b       	std	Y+19, r24	; 0x13
	Uchar8_t LOCAL_Uchar8_tRowCounter,LOCAL_Uchar8_tColCounter,LOCAL_Uchar8_tPinValue,LOCAL_Uchar8_tFlag = 0;
    2b0c:	1f 86       	std	Y+15, r1	; 0x0f

	for(LOCAL_Uchar8_tRowCounter = 0;LOCAL_Uchar8_tRowCounter<4;LOCAL_Uchar8_tRowCounter++)
    2b0e:	1a 8a       	std	Y+18, r1	; 0x12
    2b10:	c0 c0       	rjmp	.+384    	; 0x2c92 <KPD_vGetPressedKey+0x19e>
	{
		for(LOCAL_Uchar8_tColCounter = 0;LOCAL_Uchar8_tColCounter<4;LOCAL_Uchar8_tColCounter++)
    2b12:	19 8a       	std	Y+17, r1	; 0x11
    2b14:	a8 c0       	rjmp	.+336    	; 0x2c66 <KPD_vGetPressedKey+0x172>
		{
			DIO_vSetPinVal(KP_PORT,GLOBAL_Uchar8_tARowNumber[LOCAL_Uchar8_tRowCounter],LOW);
    2b16:	8a 89       	ldd	r24, Y+18	; 0x12
    2b18:	88 2f       	mov	r24, r24
    2b1a:	90 e0       	ldi	r25, 0x00	; 0
    2b1c:	fc 01       	movw	r30, r24
    2b1e:	e8 58       	subi	r30, 0x88	; 136
    2b20:	ff 4f       	sbci	r31, 0xFF	; 255
    2b22:	90 81       	ld	r25, Z
    2b24:	83 e0       	ldi	r24, 0x03	; 3
    2b26:	69 2f       	mov	r22, r25
    2b28:	40 e0       	ldi	r20, 0x00	; 0
    2b2a:	0e 94 fb 06 	call	0xdf6	; 0xdf6 <DIO_vSetPinVal>


			LOCAL_Uchar8_tPinValue = DIO_Uchar8_tGetPinVal(KP_PORT,GLOBAL_Uchar8_tAcolNumber[LOCAL_Uchar8_tColCounter]);
    2b2e:	89 89       	ldd	r24, Y+17	; 0x11
    2b30:	88 2f       	mov	r24, r24
    2b32:	90 e0       	ldi	r25, 0x00	; 0
    2b34:	fc 01       	movw	r30, r24
    2b36:	e4 58       	subi	r30, 0x84	; 132
    2b38:	ff 4f       	sbci	r31, 0xFF	; 255
    2b3a:	90 81       	ld	r25, Z
    2b3c:	83 e0       	ldi	r24, 0x03	; 3
    2b3e:	69 2f       	mov	r22, r25
    2b40:	0e 94 fd 07 	call	0xffa	; 0xffa <DIO_Uchar8_tGetPinVal>
    2b44:	88 8b       	std	Y+16, r24	; 0x10

			if(LOCAL_Uchar8_tPinValue == BTN_PRESSED)
    2b46:	88 89       	ldd	r24, Y+16	; 0x10
    2b48:	88 23       	and	r24, r24
    2b4a:	09 f0       	breq	.+2      	; 0x2b4e <KPD_vGetPressedKey+0x5a>
    2b4c:	89 c0       	rjmp	.+274    	; 0x2c60 <KPD_vGetPressedKey+0x16c>
    2b4e:	80 e0       	ldi	r24, 0x00	; 0
    2b50:	90 e0       	ldi	r25, 0x00	; 0
    2b52:	aa e7       	ldi	r26, 0x7A	; 122
    2b54:	b3 e4       	ldi	r27, 0x43	; 67
    2b56:	8b 87       	std	Y+11, r24	; 0x0b
    2b58:	9c 87       	std	Y+12, r25	; 0x0c
    2b5a:	ad 87       	std	Y+13, r26	; 0x0d
    2b5c:	be 87       	std	Y+14, r27	; 0x0e
 */
void
_delay_ms(double __ms)
{
	uint16_t __ticks;
	double __tmp = ((F_CPU) / 4e3) * __ms;
    2b5e:	6b 85       	ldd	r22, Y+11	; 0x0b
    2b60:	7c 85       	ldd	r23, Y+12	; 0x0c
    2b62:	8d 85       	ldd	r24, Y+13	; 0x0d
    2b64:	9e 85       	ldd	r25, Y+14	; 0x0e
    2b66:	20 e0       	ldi	r18, 0x00	; 0
    2b68:	30 e0       	ldi	r19, 0x00	; 0
    2b6a:	4a ef       	ldi	r20, 0xFA	; 250
    2b6c:	54 e4       	ldi	r21, 0x44	; 68
    2b6e:	0e 94 17 02 	call	0x42e	; 0x42e <__mulsf3>
    2b72:	dc 01       	movw	r26, r24
    2b74:	cb 01       	movw	r24, r22
    2b76:	8f 83       	std	Y+7, r24	; 0x07
    2b78:	98 87       	std	Y+8, r25	; 0x08
    2b7a:	a9 87       	std	Y+9, r26	; 0x09
    2b7c:	ba 87       	std	Y+10, r27	; 0x0a
	if (__tmp < 1.0)
    2b7e:	6f 81       	ldd	r22, Y+7	; 0x07
    2b80:	78 85       	ldd	r23, Y+8	; 0x08
    2b82:	89 85       	ldd	r24, Y+9	; 0x09
    2b84:	9a 85       	ldd	r25, Y+10	; 0x0a
    2b86:	20 e0       	ldi	r18, 0x00	; 0
    2b88:	30 e0       	ldi	r19, 0x00	; 0
    2b8a:	40 e8       	ldi	r20, 0x80	; 128
    2b8c:	5f e3       	ldi	r21, 0x3F	; 63
    2b8e:	0e 94 71 03 	call	0x6e2	; 0x6e2 <__ltsf2>
    2b92:	88 23       	and	r24, r24
    2b94:	2c f4       	brge	.+10     	; 0x2ba0 <KPD_vGetPressedKey+0xac>
		__ticks = 1;
    2b96:	81 e0       	ldi	r24, 0x01	; 1
    2b98:	90 e0       	ldi	r25, 0x00	; 0
    2b9a:	9e 83       	std	Y+6, r25	; 0x06
    2b9c:	8d 83       	std	Y+5, r24	; 0x05
    2b9e:	3f c0       	rjmp	.+126    	; 0x2c1e <KPD_vGetPressedKey+0x12a>
	else if (__tmp > 65535)
    2ba0:	6f 81       	ldd	r22, Y+7	; 0x07
    2ba2:	78 85       	ldd	r23, Y+8	; 0x08
    2ba4:	89 85       	ldd	r24, Y+9	; 0x09
    2ba6:	9a 85       	ldd	r25, Y+10	; 0x0a
    2ba8:	20 e0       	ldi	r18, 0x00	; 0
    2baa:	3f ef       	ldi	r19, 0xFF	; 255
    2bac:	4f e7       	ldi	r20, 0x7F	; 127
    2bae:	57 e4       	ldi	r21, 0x47	; 71
    2bb0:	0e 94 11 03 	call	0x622	; 0x622 <__gtsf2>
    2bb4:	18 16       	cp	r1, r24
    2bb6:	4c f5       	brge	.+82     	; 0x2c0a <KPD_vGetPressedKey+0x116>
	{
		//	__ticks = requested delay in 1/10 ms
		__ticks = (uint16_t) (__ms * 10.0);
    2bb8:	6b 85       	ldd	r22, Y+11	; 0x0b
    2bba:	7c 85       	ldd	r23, Y+12	; 0x0c
    2bbc:	8d 85       	ldd	r24, Y+13	; 0x0d
    2bbe:	9e 85       	ldd	r25, Y+14	; 0x0e
    2bc0:	20 e0       	ldi	r18, 0x00	; 0
    2bc2:	30 e0       	ldi	r19, 0x00	; 0
    2bc4:	40 e2       	ldi	r20, 0x20	; 32
    2bc6:	51 e4       	ldi	r21, 0x41	; 65
    2bc8:	0e 94 17 02 	call	0x42e	; 0x42e <__mulsf3>
    2bcc:	dc 01       	movw	r26, r24
    2bce:	cb 01       	movw	r24, r22
    2bd0:	bc 01       	movw	r22, r24
    2bd2:	cd 01       	movw	r24, r26
    2bd4:	0e 94 41 00 	call	0x82	; 0x82 <__fixunssfsi>
    2bd8:	dc 01       	movw	r26, r24
    2bda:	cb 01       	movw	r24, r22
    2bdc:	9e 83       	std	Y+6, r25	; 0x06
    2bde:	8d 83       	std	Y+5, r24	; 0x05
    2be0:	0f c0       	rjmp	.+30     	; 0x2c00 <KPD_vGetPressedKey+0x10c>
    2be2:	88 ec       	ldi	r24, 0xC8	; 200
    2be4:	90 e0       	ldi	r25, 0x00	; 0
    2be6:	9c 83       	std	Y+4, r25	; 0x04
    2be8:	8b 83       	std	Y+3, r24	; 0x03
    2bea:	8b 81       	ldd	r24, Y+3	; 0x03
    2bec:	9c 81       	ldd	r25, Y+4	; 0x04
    2bee:	01 97       	sbiw	r24, 0x01	; 1
    2bf0:	f1 f7       	brne	.-4      	; 0x2bee <KPD_vGetPressedKey+0xfa>
    2bf2:	9c 83       	std	Y+4, r25	; 0x04
    2bf4:	8b 83       	std	Y+3, r24	; 0x03
		while(__ticks)
		{
			// wait 1/10 ms
			_delay_loop_2(((F_CPU) / 4e3) / 10);
			__ticks --;
    2bf6:	8d 81       	ldd	r24, Y+5	; 0x05
    2bf8:	9e 81       	ldd	r25, Y+6	; 0x06
    2bfa:	01 97       	sbiw	r24, 0x01	; 1
    2bfc:	9e 83       	std	Y+6, r25	; 0x06
    2bfe:	8d 83       	std	Y+5, r24	; 0x05
		__ticks = 1;
	else if (__tmp > 65535)
	{
		//	__ticks = requested delay in 1/10 ms
		__ticks = (uint16_t) (__ms * 10.0);
		while(__ticks)
    2c00:	8d 81       	ldd	r24, Y+5	; 0x05
    2c02:	9e 81       	ldd	r25, Y+6	; 0x06
    2c04:	00 97       	sbiw	r24, 0x00	; 0
    2c06:	69 f7       	brne	.-38     	; 0x2be2 <KPD_vGetPressedKey+0xee>
    2c08:	14 c0       	rjmp	.+40     	; 0x2c32 <KPD_vGetPressedKey+0x13e>
			__ticks --;
		}
		return;
	}
	else
		__ticks = (uint16_t)__tmp;
    2c0a:	6f 81       	ldd	r22, Y+7	; 0x07
    2c0c:	78 85       	ldd	r23, Y+8	; 0x08
    2c0e:	89 85       	ldd	r24, Y+9	; 0x09
    2c10:	9a 85       	ldd	r25, Y+10	; 0x0a
    2c12:	0e 94 41 00 	call	0x82	; 0x82 <__fixunssfsi>
    2c16:	dc 01       	movw	r26, r24
    2c18:	cb 01       	movw	r24, r22
    2c1a:	9e 83       	std	Y+6, r25	; 0x06
    2c1c:	8d 83       	std	Y+5, r24	; 0x05
    2c1e:	8d 81       	ldd	r24, Y+5	; 0x05
    2c20:	9e 81       	ldd	r25, Y+6	; 0x06
    2c22:	9a 83       	std	Y+2, r25	; 0x02
    2c24:	89 83       	std	Y+1, r24	; 0x01
    2c26:	89 81       	ldd	r24, Y+1	; 0x01
    2c28:	9a 81       	ldd	r25, Y+2	; 0x02
    2c2a:	01 97       	sbiw	r24, 0x01	; 1
    2c2c:	f1 f7       	brne	.-4      	; 0x2c2a <KPD_vGetPressedKey+0x136>
    2c2e:	9a 83       	std	Y+2, r25	; 0x02
    2c30:	89 83       	std	Y+1, r24	; 0x01
			{
				_delay_ms(250);
				*Copy_Uchar8_tPressedKey = GLOBAL_Uchar8_tAKeyPadInterface[LOCAL_Uchar8_tRowCounter][LOCAL_Uchar8_tColCounter];
    2c32:	8a 89       	ldd	r24, Y+18	; 0x12
    2c34:	48 2f       	mov	r20, r24
    2c36:	50 e0       	ldi	r21, 0x00	; 0
    2c38:	89 89       	ldd	r24, Y+17	; 0x11
    2c3a:	28 2f       	mov	r18, r24
    2c3c:	30 e0       	ldi	r19, 0x00	; 0
    2c3e:	ca 01       	movw	r24, r20
    2c40:	88 0f       	add	r24, r24
    2c42:	99 1f       	adc	r25, r25
    2c44:	88 0f       	add	r24, r24
    2c46:	99 1f       	adc	r25, r25
    2c48:	82 0f       	add	r24, r18
    2c4a:	93 1f       	adc	r25, r19
    2c4c:	fc 01       	movw	r30, r24
    2c4e:	e8 59       	subi	r30, 0x98	; 152
    2c50:	ff 4f       	sbci	r31, 0xFF	; 255
    2c52:	80 81       	ld	r24, Z
    2c54:	eb 89       	ldd	r30, Y+19	; 0x13
    2c56:	fc 89       	ldd	r31, Y+20	; 0x14
    2c58:	80 83       	st	Z, r24
				LOCAL_Uchar8_tFlag = 1;
    2c5a:	81 e0       	ldi	r24, 0x01	; 1
    2c5c:	8f 87       	std	Y+15, r24	; 0x0f
    2c5e:	07 c0       	rjmp	.+14     	; 0x2c6e <KPD_vGetPressedKey+0x17a>
{
	Uchar8_t LOCAL_Uchar8_tRowCounter,LOCAL_Uchar8_tColCounter,LOCAL_Uchar8_tPinValue,LOCAL_Uchar8_tFlag = 0;

	for(LOCAL_Uchar8_tRowCounter = 0;LOCAL_Uchar8_tRowCounter<4;LOCAL_Uchar8_tRowCounter++)
	{
		for(LOCAL_Uchar8_tColCounter = 0;LOCAL_Uchar8_tColCounter<4;LOCAL_Uchar8_tColCounter++)
    2c60:	89 89       	ldd	r24, Y+17	; 0x11
    2c62:	8f 5f       	subi	r24, 0xFF	; 255
    2c64:	89 8b       	std	Y+17, r24	; 0x11
    2c66:	89 89       	ldd	r24, Y+17	; 0x11
    2c68:	84 30       	cpi	r24, 0x04	; 4
    2c6a:	08 f4       	brcc	.+2      	; 0x2c6e <KPD_vGetPressedKey+0x17a>
    2c6c:	54 cf       	rjmp	.-344    	; 0x2b16 <KPD_vGetPressedKey+0x22>
				*Copy_Uchar8_tPressedKey = GLOBAL_Uchar8_tAKeyPadInterface[LOCAL_Uchar8_tRowCounter][LOCAL_Uchar8_tColCounter];
				LOCAL_Uchar8_tFlag = 1;
				break;
			}
		}
		DIO_vSetPinVal(KP_PORT,GLOBAL_Uchar8_tARowNumber[LOCAL_Uchar8_tRowCounter],HIGH);
    2c6e:	8a 89       	ldd	r24, Y+18	; 0x12
    2c70:	88 2f       	mov	r24, r24
    2c72:	90 e0       	ldi	r25, 0x00	; 0
    2c74:	fc 01       	movw	r30, r24
    2c76:	e8 58       	subi	r30, 0x88	; 136
    2c78:	ff 4f       	sbci	r31, 0xFF	; 255
    2c7a:	90 81       	ld	r25, Z
    2c7c:	83 e0       	ldi	r24, 0x03	; 3
    2c7e:	69 2f       	mov	r22, r25
    2c80:	41 e0       	ldi	r20, 0x01	; 1
    2c82:	0e 94 fb 06 	call	0xdf6	; 0xdf6 <DIO_vSetPinVal>
		if(LOCAL_Uchar8_tFlag == 1)
    2c86:	8f 85       	ldd	r24, Y+15	; 0x0f
    2c88:	81 30       	cpi	r24, 0x01	; 1
    2c8a:	39 f0       	breq	.+14     	; 0x2c9a <KPD_vGetPressedKey+0x1a6>

void KPD_vGetPressedKey(Uchar8_t *Copy_Uchar8_tPressedKey)
{
	Uchar8_t LOCAL_Uchar8_tRowCounter,LOCAL_Uchar8_tColCounter,LOCAL_Uchar8_tPinValue,LOCAL_Uchar8_tFlag = 0;

	for(LOCAL_Uchar8_tRowCounter = 0;LOCAL_Uchar8_tRowCounter<4;LOCAL_Uchar8_tRowCounter++)
    2c8c:	8a 89       	ldd	r24, Y+18	; 0x12
    2c8e:	8f 5f       	subi	r24, 0xFF	; 255
    2c90:	8a 8b       	std	Y+18, r24	; 0x12
    2c92:	8a 89       	ldd	r24, Y+18	; 0x12
    2c94:	84 30       	cpi	r24, 0x04	; 4
    2c96:	08 f4       	brcc	.+2      	; 0x2c9a <KPD_vGetPressedKey+0x1a6>
    2c98:	3c cf       	rjmp	.-392    	; 0x2b12 <KPD_vGetPressedKey+0x1e>
		if(LOCAL_Uchar8_tFlag == 1)
		{
			break;
		}
	}
}
    2c9a:	64 96       	adiw	r28, 0x14	; 20
    2c9c:	0f b6       	in	r0, 0x3f	; 63
    2c9e:	f8 94       	cli
    2ca0:	de bf       	out	0x3e, r29	; 62
    2ca2:	0f be       	out	0x3f, r0	; 63
    2ca4:	cd bf       	out	0x3d, r28	; 61
    2ca6:	cf 91       	pop	r28
    2ca8:	df 91       	pop	r29
    2caa:	08 95       	ret

00002cac <SEGMENT_vInit>:


#include"7SEGMENT_Interface.h"

void SEGMENT_vInit(Uchar8_t Copy_Uchar8_tSegmentNumber)
{
    2cac:	df 93       	push	r29
    2cae:	cf 93       	push	r28
    2cb0:	00 d0       	rcall	.+0      	; 0x2cb2 <SEGMENT_vInit+0x6>
    2cb2:	0f 92       	push	r0
    2cb4:	cd b7       	in	r28, 0x3d	; 61
    2cb6:	de b7       	in	r29, 0x3e	; 62
    2cb8:	89 83       	std	Y+1, r24	; 0x01
	switch(Copy_Uchar8_tSegmentNumber)
    2cba:	89 81       	ldd	r24, Y+1	; 0x01
    2cbc:	28 2f       	mov	r18, r24
    2cbe:	30 e0       	ldi	r19, 0x00	; 0
    2cc0:	3b 83       	std	Y+3, r19	; 0x03
    2cc2:	2a 83       	std	Y+2, r18	; 0x02
    2cc4:	8a 81       	ldd	r24, Y+2	; 0x02
    2cc6:	9b 81       	ldd	r25, Y+3	; 0x03
    2cc8:	81 30       	cpi	r24, 0x01	; 1
    2cca:	91 05       	cpc	r25, r1
    2ccc:	31 f0       	breq	.+12     	; 0x2cda <SEGMENT_vInit+0x2e>
    2cce:	2a 81       	ldd	r18, Y+2	; 0x02
    2cd0:	3b 81       	ldd	r19, Y+3	; 0x03
    2cd2:	22 30       	cpi	r18, 0x02	; 2
    2cd4:	31 05       	cpc	r19, r1
    2cd6:	31 f0       	breq	.+12     	; 0x2ce4 <SEGMENT_vInit+0x38>
    2cd8:	09 c0       	rjmp	.+18     	; 0x2cec <SEGMENT_vInit+0x40>
	{
	case SEGMENT_ONE:
	{
		DIO_vSetGroupPinDir(SEGMENT_ONE_PORT,OUTPUT);
    2cda:	81 e0       	ldi	r24, 0x01	; 1
    2cdc:	61 e0       	ldi	r22, 0x01	; 1
    2cde:	0e 94 77 08 	call	0x10ee	; 0x10ee <DIO_vSetGroupPinDir>
    2ce2:	04 c0       	rjmp	.+8      	; 0x2cec <SEGMENT_vInit+0x40>
		break;
	}
	case SEGMENT_TWO:
		DIO_vSetGroupPinDir(SEGMENT_TWO_PORT,OUTPUT);
    2ce4:	82 e0       	ldi	r24, 0x02	; 2
    2ce6:	61 e0       	ldi	r22, 0x01	; 1
    2ce8:	0e 94 77 08 	call	0x10ee	; 0x10ee <DIO_vSetGroupPinDir>
		break;
	}
}
    2cec:	0f 90       	pop	r0
    2cee:	0f 90       	pop	r0
    2cf0:	0f 90       	pop	r0
    2cf2:	cf 91       	pop	r28
    2cf4:	df 91       	pop	r29
    2cf6:	08 95       	ret

00002cf8 <SEGMENT_vSetLedPinVal>:


void SEGMENT_vSetLedPinVal(Uchar8_t Copy_Uchar8_tSegmentNumber , Uchar8_t Copy_Uchar8_tLedName,Uchar8_t Copy_Uchar8_tLedStatus)
{
    2cf8:	df 93       	push	r29
    2cfa:	cf 93       	push	r28
    2cfc:	00 d0       	rcall	.+0      	; 0x2cfe <SEGMENT_vSetLedPinVal+0x6>
    2cfe:	00 d0       	rcall	.+0      	; 0x2d00 <SEGMENT_vSetLedPinVal+0x8>
    2d00:	0f 92       	push	r0
    2d02:	cd b7       	in	r28, 0x3d	; 61
    2d04:	de b7       	in	r29, 0x3e	; 62
    2d06:	89 83       	std	Y+1, r24	; 0x01
    2d08:	6a 83       	std	Y+2, r22	; 0x02
    2d0a:	4b 83       	std	Y+3, r20	; 0x03
	switch(Copy_Uchar8_tSegmentNumber)
    2d0c:	89 81       	ldd	r24, Y+1	; 0x01
    2d0e:	28 2f       	mov	r18, r24
    2d10:	30 e0       	ldi	r19, 0x00	; 0
    2d12:	3d 83       	std	Y+5, r19	; 0x05
    2d14:	2c 83       	std	Y+4, r18	; 0x04
    2d16:	8c 81       	ldd	r24, Y+4	; 0x04
    2d18:	9d 81       	ldd	r25, Y+5	; 0x05
    2d1a:	81 30       	cpi	r24, 0x01	; 1
    2d1c:	91 05       	cpc	r25, r1
    2d1e:	31 f0       	breq	.+12     	; 0x2d2c <SEGMENT_vSetLedPinVal+0x34>
    2d20:	2c 81       	ldd	r18, Y+4	; 0x04
    2d22:	3d 81       	ldd	r19, Y+5	; 0x05
    2d24:	22 30       	cpi	r18, 0x02	; 2
    2d26:	31 05       	cpc	r19, r1
    2d28:	39 f0       	breq	.+14     	; 0x2d38 <SEGMENT_vSetLedPinVal+0x40>
    2d2a:	0b c0       	rjmp	.+22     	; 0x2d42 <SEGMENT_vSetLedPinVal+0x4a>
	{
	case SEGMENT_ONE:
	{
		DIO_vSetPinVal(SEGMENT_ONE_PORT,Copy_Uchar8_tLedName,Copy_Uchar8_tLedStatus);
    2d2c:	81 e0       	ldi	r24, 0x01	; 1
    2d2e:	6a 81       	ldd	r22, Y+2	; 0x02
    2d30:	4b 81       	ldd	r20, Y+3	; 0x03
    2d32:	0e 94 fb 06 	call	0xdf6	; 0xdf6 <DIO_vSetPinVal>
    2d36:	05 c0       	rjmp	.+10     	; 0x2d42 <SEGMENT_vSetLedPinVal+0x4a>
		break;
	}
	case SEGMENT_TWO:
	{
		DIO_vSetPinVal(SEGMENT_TWO_PORT,Copy_Uchar8_tLedName,Copy_Uchar8_tLedStatus);
    2d38:	82 e0       	ldi	r24, 0x02	; 2
    2d3a:	6a 81       	ldd	r22, Y+2	; 0x02
    2d3c:	4b 81       	ldd	r20, Y+3	; 0x03
    2d3e:	0e 94 fb 06 	call	0xdf6	; 0xdf6 <DIO_vSetPinVal>
		break;
	}
	}
}
    2d42:	0f 90       	pop	r0
    2d44:	0f 90       	pop	r0
    2d46:	0f 90       	pop	r0
    2d48:	0f 90       	pop	r0
    2d4a:	0f 90       	pop	r0
    2d4c:	cf 91       	pop	r28
    2d4e:	df 91       	pop	r29
    2d50:	08 95       	ret

00002d52 <SEGMENT_vDisplayNumber>:

void SEGMENT_vDisplayNumber(Uchar8_t Copy_Uchar8_tSegmentNumber , Uchar8_t Copy_Uchar8_tNumber)
{
    2d52:	df 93       	push	r29
    2d54:	cf 93       	push	r28
    2d56:	00 d0       	rcall	.+0      	; 0x2d58 <SEGMENT_vDisplayNumber+0x6>
    2d58:	00 d0       	rcall	.+0      	; 0x2d5a <SEGMENT_vDisplayNumber+0x8>
    2d5a:	cd b7       	in	r28, 0x3d	; 61
    2d5c:	de b7       	in	r29, 0x3e	; 62
    2d5e:	89 83       	std	Y+1, r24	; 0x01
    2d60:	6a 83       	std	Y+2, r22	; 0x02


	switch(Copy_Uchar8_tNumber)
    2d62:	8a 81       	ldd	r24, Y+2	; 0x02
    2d64:	28 2f       	mov	r18, r24
    2d66:	30 e0       	ldi	r19, 0x00	; 0
    2d68:	3c 83       	std	Y+4, r19	; 0x04
    2d6a:	2b 83       	std	Y+3, r18	; 0x03
    2d6c:	8b 81       	ldd	r24, Y+3	; 0x03
    2d6e:	9c 81       	ldd	r25, Y+4	; 0x04
    2d70:	84 30       	cpi	r24, 0x04	; 4
    2d72:	91 05       	cpc	r25, r1
    2d74:	09 f4       	brne	.+2      	; 0x2d78 <SEGMENT_vDisplayNumber+0x26>
    2d76:	eb c0       	rjmp	.+470    	; 0x2f4e <SEGMENT_vDisplayNumber+0x1fc>
    2d78:	2b 81       	ldd	r18, Y+3	; 0x03
    2d7a:	3c 81       	ldd	r19, Y+4	; 0x04
    2d7c:	25 30       	cpi	r18, 0x05	; 5
    2d7e:	31 05       	cpc	r19, r1
    2d80:	ec f4       	brge	.+58     	; 0x2dbc <SEGMENT_vDisplayNumber+0x6a>
    2d82:	8b 81       	ldd	r24, Y+3	; 0x03
    2d84:	9c 81       	ldd	r25, Y+4	; 0x04
    2d86:	81 30       	cpi	r24, 0x01	; 1
    2d88:	91 05       	cpc	r25, r1
    2d8a:	09 f4       	brne	.+2      	; 0x2d8e <SEGMENT_vDisplayNumber+0x3c>
    2d8c:	65 c0       	rjmp	.+202    	; 0x2e58 <SEGMENT_vDisplayNumber+0x106>
    2d8e:	2b 81       	ldd	r18, Y+3	; 0x03
    2d90:	3c 81       	ldd	r19, Y+4	; 0x04
    2d92:	22 30       	cpi	r18, 0x02	; 2
    2d94:	31 05       	cpc	r19, r1
    2d96:	2c f4       	brge	.+10     	; 0x2da2 <SEGMENT_vDisplayNumber+0x50>
    2d98:	8b 81       	ldd	r24, Y+3	; 0x03
    2d9a:	9c 81       	ldd	r25, Y+4	; 0x04
    2d9c:	00 97       	sbiw	r24, 0x00	; 0
    2d9e:	99 f1       	breq	.+102    	; 0x2e06 <SEGMENT_vDisplayNumber+0xb4>
    2da0:	cb c1       	rjmp	.+918    	; 0x3138 <SEGMENT_vDisplayNumber+0x3e6>
    2da2:	2b 81       	ldd	r18, Y+3	; 0x03
    2da4:	3c 81       	ldd	r19, Y+4	; 0x04
    2da6:	22 30       	cpi	r18, 0x02	; 2
    2da8:	31 05       	cpc	r19, r1
    2daa:	09 f4       	brne	.+2      	; 0x2dae <SEGMENT_vDisplayNumber+0x5c>
    2dac:	7e c0       	rjmp	.+252    	; 0x2eaa <SEGMENT_vDisplayNumber+0x158>
    2dae:	8b 81       	ldd	r24, Y+3	; 0x03
    2db0:	9c 81       	ldd	r25, Y+4	; 0x04
    2db2:	83 30       	cpi	r24, 0x03	; 3
    2db4:	91 05       	cpc	r25, r1
    2db6:	09 f4       	brne	.+2      	; 0x2dba <SEGMENT_vDisplayNumber+0x68>
    2db8:	a1 c0       	rjmp	.+322    	; 0x2efc <SEGMENT_vDisplayNumber+0x1aa>
    2dba:	be c1       	rjmp	.+892    	; 0x3138 <SEGMENT_vDisplayNumber+0x3e6>
    2dbc:	2b 81       	ldd	r18, Y+3	; 0x03
    2dbe:	3c 81       	ldd	r19, Y+4	; 0x04
    2dc0:	27 30       	cpi	r18, 0x07	; 7
    2dc2:	31 05       	cpc	r19, r1
    2dc4:	09 f4       	brne	.+2      	; 0x2dc8 <SEGMENT_vDisplayNumber+0x76>
    2dc6:	3e c1       	rjmp	.+636    	; 0x3044 <SEGMENT_vDisplayNumber+0x2f2>
    2dc8:	8b 81       	ldd	r24, Y+3	; 0x03
    2dca:	9c 81       	ldd	r25, Y+4	; 0x04
    2dcc:	88 30       	cpi	r24, 0x08	; 8
    2dce:	91 05       	cpc	r25, r1
    2dd0:	6c f4       	brge	.+26     	; 0x2dec <SEGMENT_vDisplayNumber+0x9a>
    2dd2:	2b 81       	ldd	r18, Y+3	; 0x03
    2dd4:	3c 81       	ldd	r19, Y+4	; 0x04
    2dd6:	25 30       	cpi	r18, 0x05	; 5
    2dd8:	31 05       	cpc	r19, r1
    2dda:	09 f4       	brne	.+2      	; 0x2dde <SEGMENT_vDisplayNumber+0x8c>
    2ddc:	e1 c0       	rjmp	.+450    	; 0x2fa0 <SEGMENT_vDisplayNumber+0x24e>
    2dde:	8b 81       	ldd	r24, Y+3	; 0x03
    2de0:	9c 81       	ldd	r25, Y+4	; 0x04
    2de2:	86 30       	cpi	r24, 0x06	; 6
    2de4:	91 05       	cpc	r25, r1
    2de6:	09 f4       	brne	.+2      	; 0x2dea <SEGMENT_vDisplayNumber+0x98>
    2de8:	04 c1       	rjmp	.+520    	; 0x2ff2 <SEGMENT_vDisplayNumber+0x2a0>
    2dea:	a6 c1       	rjmp	.+844    	; 0x3138 <SEGMENT_vDisplayNumber+0x3e6>
    2dec:	2b 81       	ldd	r18, Y+3	; 0x03
    2dee:	3c 81       	ldd	r19, Y+4	; 0x04
    2df0:	28 30       	cpi	r18, 0x08	; 8
    2df2:	31 05       	cpc	r19, r1
    2df4:	09 f4       	brne	.+2      	; 0x2df8 <SEGMENT_vDisplayNumber+0xa6>
    2df6:	4f c1       	rjmp	.+670    	; 0x3096 <SEGMENT_vDisplayNumber+0x344>
    2df8:	8b 81       	ldd	r24, Y+3	; 0x03
    2dfa:	9c 81       	ldd	r25, Y+4	; 0x04
    2dfc:	89 30       	cpi	r24, 0x09	; 9
    2dfe:	91 05       	cpc	r25, r1
    2e00:	09 f4       	brne	.+2      	; 0x2e04 <SEGMENT_vDisplayNumber+0xb2>
    2e02:	72 c1       	rjmp	.+740    	; 0x30e8 <SEGMENT_vDisplayNumber+0x396>
    2e04:	99 c1       	rjmp	.+818    	; 0x3138 <SEGMENT_vDisplayNumber+0x3e6>
	{
	case 0:
	{
		SEGMENT_vSetLedPinVal(Copy_Uchar8_tSegmentNumber,LEDA,ON);
    2e06:	89 81       	ldd	r24, Y+1	; 0x01
    2e08:	60 e0       	ldi	r22, 0x00	; 0
    2e0a:	41 e0       	ldi	r20, 0x01	; 1
    2e0c:	0e 94 7c 16 	call	0x2cf8	; 0x2cf8 <SEGMENT_vSetLedPinVal>
		SEGMENT_vSetLedPinVal(Copy_Uchar8_tSegmentNumber,LEDB,ON);
    2e10:	89 81       	ldd	r24, Y+1	; 0x01
    2e12:	61 e0       	ldi	r22, 0x01	; 1
    2e14:	41 e0       	ldi	r20, 0x01	; 1
    2e16:	0e 94 7c 16 	call	0x2cf8	; 0x2cf8 <SEGMENT_vSetLedPinVal>
		SEGMENT_vSetLedPinVal(Copy_Uchar8_tSegmentNumber,LEDC,ON);
    2e1a:	89 81       	ldd	r24, Y+1	; 0x01
    2e1c:	62 e0       	ldi	r22, 0x02	; 2
    2e1e:	41 e0       	ldi	r20, 0x01	; 1
    2e20:	0e 94 7c 16 	call	0x2cf8	; 0x2cf8 <SEGMENT_vSetLedPinVal>
		SEGMENT_vSetLedPinVal(Copy_Uchar8_tSegmentNumber,LEDD,ON);
    2e24:	89 81       	ldd	r24, Y+1	; 0x01
    2e26:	63 e0       	ldi	r22, 0x03	; 3
    2e28:	41 e0       	ldi	r20, 0x01	; 1
    2e2a:	0e 94 7c 16 	call	0x2cf8	; 0x2cf8 <SEGMENT_vSetLedPinVal>
		SEGMENT_vSetLedPinVal(Copy_Uchar8_tSegmentNumber,LEDE,ON);
    2e2e:	89 81       	ldd	r24, Y+1	; 0x01
    2e30:	64 e0       	ldi	r22, 0x04	; 4
    2e32:	41 e0       	ldi	r20, 0x01	; 1
    2e34:	0e 94 7c 16 	call	0x2cf8	; 0x2cf8 <SEGMENT_vSetLedPinVal>
		SEGMENT_vSetLedPinVal(Copy_Uchar8_tSegmentNumber,LEDF,ON);
    2e38:	89 81       	ldd	r24, Y+1	; 0x01
    2e3a:	65 e0       	ldi	r22, 0x05	; 5
    2e3c:	41 e0       	ldi	r20, 0x01	; 1
    2e3e:	0e 94 7c 16 	call	0x2cf8	; 0x2cf8 <SEGMENT_vSetLedPinVal>
		SEGMENT_vSetLedPinVal(Copy_Uchar8_tSegmentNumber,LEDG,OFF);
    2e42:	89 81       	ldd	r24, Y+1	; 0x01
    2e44:	66 e0       	ldi	r22, 0x06	; 6
    2e46:	40 e0       	ldi	r20, 0x00	; 0
    2e48:	0e 94 7c 16 	call	0x2cf8	; 0x2cf8 <SEGMENT_vSetLedPinVal>
		SEGMENT_vSetLedPinVal(Copy_Uchar8_tSegmentNumber,LEDDOT,OFF);
    2e4c:	89 81       	ldd	r24, Y+1	; 0x01
    2e4e:	67 e0       	ldi	r22, 0x07	; 7
    2e50:	40 e0       	ldi	r20, 0x00	; 0
    2e52:	0e 94 7c 16 	call	0x2cf8	; 0x2cf8 <SEGMENT_vSetLedPinVal>
    2e56:	70 c1       	rjmp	.+736    	; 0x3138 <SEGMENT_vDisplayNumber+0x3e6>
		break;
	}
	case 1:
	{
		SEGMENT_vSetLedPinVal(Copy_Uchar8_tSegmentNumber,LEDA,OFF);
    2e58:	89 81       	ldd	r24, Y+1	; 0x01
    2e5a:	60 e0       	ldi	r22, 0x00	; 0
    2e5c:	40 e0       	ldi	r20, 0x00	; 0
    2e5e:	0e 94 7c 16 	call	0x2cf8	; 0x2cf8 <SEGMENT_vSetLedPinVal>
		SEGMENT_vSetLedPinVal(Copy_Uchar8_tSegmentNumber,LEDB,ON);
    2e62:	89 81       	ldd	r24, Y+1	; 0x01
    2e64:	61 e0       	ldi	r22, 0x01	; 1
    2e66:	41 e0       	ldi	r20, 0x01	; 1
    2e68:	0e 94 7c 16 	call	0x2cf8	; 0x2cf8 <SEGMENT_vSetLedPinVal>
		SEGMENT_vSetLedPinVal(Copy_Uchar8_tSegmentNumber,LEDC,ON);
    2e6c:	89 81       	ldd	r24, Y+1	; 0x01
    2e6e:	62 e0       	ldi	r22, 0x02	; 2
    2e70:	41 e0       	ldi	r20, 0x01	; 1
    2e72:	0e 94 7c 16 	call	0x2cf8	; 0x2cf8 <SEGMENT_vSetLedPinVal>
		SEGMENT_vSetLedPinVal(Copy_Uchar8_tSegmentNumber,LEDD,OFF);
    2e76:	89 81       	ldd	r24, Y+1	; 0x01
    2e78:	63 e0       	ldi	r22, 0x03	; 3
    2e7a:	40 e0       	ldi	r20, 0x00	; 0
    2e7c:	0e 94 7c 16 	call	0x2cf8	; 0x2cf8 <SEGMENT_vSetLedPinVal>
		SEGMENT_vSetLedPinVal(Copy_Uchar8_tSegmentNumber,LEDE,OFF);
    2e80:	89 81       	ldd	r24, Y+1	; 0x01
    2e82:	64 e0       	ldi	r22, 0x04	; 4
    2e84:	40 e0       	ldi	r20, 0x00	; 0
    2e86:	0e 94 7c 16 	call	0x2cf8	; 0x2cf8 <SEGMENT_vSetLedPinVal>
		SEGMENT_vSetLedPinVal(Copy_Uchar8_tSegmentNumber,LEDF,OFF);
    2e8a:	89 81       	ldd	r24, Y+1	; 0x01
    2e8c:	65 e0       	ldi	r22, 0x05	; 5
    2e8e:	40 e0       	ldi	r20, 0x00	; 0
    2e90:	0e 94 7c 16 	call	0x2cf8	; 0x2cf8 <SEGMENT_vSetLedPinVal>
		SEGMENT_vSetLedPinVal(Copy_Uchar8_tSegmentNumber,LEDG,OFF);
    2e94:	89 81       	ldd	r24, Y+1	; 0x01
    2e96:	66 e0       	ldi	r22, 0x06	; 6
    2e98:	40 e0       	ldi	r20, 0x00	; 0
    2e9a:	0e 94 7c 16 	call	0x2cf8	; 0x2cf8 <SEGMENT_vSetLedPinVal>
		SEGMENT_vSetLedPinVal(Copy_Uchar8_tSegmentNumber,LEDDOT,OFF);
    2e9e:	89 81       	ldd	r24, Y+1	; 0x01
    2ea0:	67 e0       	ldi	r22, 0x07	; 7
    2ea2:	40 e0       	ldi	r20, 0x00	; 0
    2ea4:	0e 94 7c 16 	call	0x2cf8	; 0x2cf8 <SEGMENT_vSetLedPinVal>
    2ea8:	47 c1       	rjmp	.+654    	; 0x3138 <SEGMENT_vDisplayNumber+0x3e6>
		break;
	}
	case 2:
	{
		SEGMENT_vSetLedPinVal(Copy_Uchar8_tSegmentNumber,LEDA,ON);
    2eaa:	89 81       	ldd	r24, Y+1	; 0x01
    2eac:	60 e0       	ldi	r22, 0x00	; 0
    2eae:	41 e0       	ldi	r20, 0x01	; 1
    2eb0:	0e 94 7c 16 	call	0x2cf8	; 0x2cf8 <SEGMENT_vSetLedPinVal>
		SEGMENT_vSetLedPinVal(Copy_Uchar8_tSegmentNumber,LEDB,ON);
    2eb4:	89 81       	ldd	r24, Y+1	; 0x01
    2eb6:	61 e0       	ldi	r22, 0x01	; 1
    2eb8:	41 e0       	ldi	r20, 0x01	; 1
    2eba:	0e 94 7c 16 	call	0x2cf8	; 0x2cf8 <SEGMENT_vSetLedPinVal>
		SEGMENT_vSetLedPinVal(Copy_Uchar8_tSegmentNumber,LEDC,OFF);
    2ebe:	89 81       	ldd	r24, Y+1	; 0x01
    2ec0:	62 e0       	ldi	r22, 0x02	; 2
    2ec2:	40 e0       	ldi	r20, 0x00	; 0
    2ec4:	0e 94 7c 16 	call	0x2cf8	; 0x2cf8 <SEGMENT_vSetLedPinVal>
		SEGMENT_vSetLedPinVal(Copy_Uchar8_tSegmentNumber,LEDD,ON);
    2ec8:	89 81       	ldd	r24, Y+1	; 0x01
    2eca:	63 e0       	ldi	r22, 0x03	; 3
    2ecc:	41 e0       	ldi	r20, 0x01	; 1
    2ece:	0e 94 7c 16 	call	0x2cf8	; 0x2cf8 <SEGMENT_vSetLedPinVal>
		SEGMENT_vSetLedPinVal(Copy_Uchar8_tSegmentNumber,LEDE,ON);
    2ed2:	89 81       	ldd	r24, Y+1	; 0x01
    2ed4:	64 e0       	ldi	r22, 0x04	; 4
    2ed6:	41 e0       	ldi	r20, 0x01	; 1
    2ed8:	0e 94 7c 16 	call	0x2cf8	; 0x2cf8 <SEGMENT_vSetLedPinVal>
		SEGMENT_vSetLedPinVal(Copy_Uchar8_tSegmentNumber,LEDF,OFF);
    2edc:	89 81       	ldd	r24, Y+1	; 0x01
    2ede:	65 e0       	ldi	r22, 0x05	; 5
    2ee0:	40 e0       	ldi	r20, 0x00	; 0
    2ee2:	0e 94 7c 16 	call	0x2cf8	; 0x2cf8 <SEGMENT_vSetLedPinVal>
		SEGMENT_vSetLedPinVal(Copy_Uchar8_tSegmentNumber,LEDG,ON);
    2ee6:	89 81       	ldd	r24, Y+1	; 0x01
    2ee8:	66 e0       	ldi	r22, 0x06	; 6
    2eea:	41 e0       	ldi	r20, 0x01	; 1
    2eec:	0e 94 7c 16 	call	0x2cf8	; 0x2cf8 <SEGMENT_vSetLedPinVal>
		SEGMENT_vSetLedPinVal(Copy_Uchar8_tSegmentNumber,LEDDOT,OFF);
    2ef0:	89 81       	ldd	r24, Y+1	; 0x01
    2ef2:	67 e0       	ldi	r22, 0x07	; 7
    2ef4:	40 e0       	ldi	r20, 0x00	; 0
    2ef6:	0e 94 7c 16 	call	0x2cf8	; 0x2cf8 <SEGMENT_vSetLedPinVal>
    2efa:	1e c1       	rjmp	.+572    	; 0x3138 <SEGMENT_vDisplayNumber+0x3e6>
		break;
	}
	case 3:
	{
		SEGMENT_vSetLedPinVal(Copy_Uchar8_tSegmentNumber,LEDA,ON);
    2efc:	89 81       	ldd	r24, Y+1	; 0x01
    2efe:	60 e0       	ldi	r22, 0x00	; 0
    2f00:	41 e0       	ldi	r20, 0x01	; 1
    2f02:	0e 94 7c 16 	call	0x2cf8	; 0x2cf8 <SEGMENT_vSetLedPinVal>
		SEGMENT_vSetLedPinVal(Copy_Uchar8_tSegmentNumber,LEDB,ON);
    2f06:	89 81       	ldd	r24, Y+1	; 0x01
    2f08:	61 e0       	ldi	r22, 0x01	; 1
    2f0a:	41 e0       	ldi	r20, 0x01	; 1
    2f0c:	0e 94 7c 16 	call	0x2cf8	; 0x2cf8 <SEGMENT_vSetLedPinVal>
		SEGMENT_vSetLedPinVal(Copy_Uchar8_tSegmentNumber,LEDC,ON);
    2f10:	89 81       	ldd	r24, Y+1	; 0x01
    2f12:	62 e0       	ldi	r22, 0x02	; 2
    2f14:	41 e0       	ldi	r20, 0x01	; 1
    2f16:	0e 94 7c 16 	call	0x2cf8	; 0x2cf8 <SEGMENT_vSetLedPinVal>
		SEGMENT_vSetLedPinVal(Copy_Uchar8_tSegmentNumber,LEDD,ON);
    2f1a:	89 81       	ldd	r24, Y+1	; 0x01
    2f1c:	63 e0       	ldi	r22, 0x03	; 3
    2f1e:	41 e0       	ldi	r20, 0x01	; 1
    2f20:	0e 94 7c 16 	call	0x2cf8	; 0x2cf8 <SEGMENT_vSetLedPinVal>
		SEGMENT_vSetLedPinVal(Copy_Uchar8_tSegmentNumber,LEDE,OFF);
    2f24:	89 81       	ldd	r24, Y+1	; 0x01
    2f26:	64 e0       	ldi	r22, 0x04	; 4
    2f28:	40 e0       	ldi	r20, 0x00	; 0
    2f2a:	0e 94 7c 16 	call	0x2cf8	; 0x2cf8 <SEGMENT_vSetLedPinVal>
		SEGMENT_vSetLedPinVal(Copy_Uchar8_tSegmentNumber,LEDF,OFF);
    2f2e:	89 81       	ldd	r24, Y+1	; 0x01
    2f30:	65 e0       	ldi	r22, 0x05	; 5
    2f32:	40 e0       	ldi	r20, 0x00	; 0
    2f34:	0e 94 7c 16 	call	0x2cf8	; 0x2cf8 <SEGMENT_vSetLedPinVal>
		SEGMENT_vSetLedPinVal(Copy_Uchar8_tSegmentNumber,LEDG,ON);
    2f38:	89 81       	ldd	r24, Y+1	; 0x01
    2f3a:	66 e0       	ldi	r22, 0x06	; 6
    2f3c:	41 e0       	ldi	r20, 0x01	; 1
    2f3e:	0e 94 7c 16 	call	0x2cf8	; 0x2cf8 <SEGMENT_vSetLedPinVal>
		SEGMENT_vSetLedPinVal(Copy_Uchar8_tSegmentNumber,LEDDOT,OFF);
    2f42:	89 81       	ldd	r24, Y+1	; 0x01
    2f44:	67 e0       	ldi	r22, 0x07	; 7
    2f46:	40 e0       	ldi	r20, 0x00	; 0
    2f48:	0e 94 7c 16 	call	0x2cf8	; 0x2cf8 <SEGMENT_vSetLedPinVal>
    2f4c:	f5 c0       	rjmp	.+490    	; 0x3138 <SEGMENT_vDisplayNumber+0x3e6>
		break;
	}
	case 4:
	{
		SEGMENT_vSetLedPinVal(Copy_Uchar8_tSegmentNumber,LEDA,OFF);
    2f4e:	89 81       	ldd	r24, Y+1	; 0x01
    2f50:	60 e0       	ldi	r22, 0x00	; 0
    2f52:	40 e0       	ldi	r20, 0x00	; 0
    2f54:	0e 94 7c 16 	call	0x2cf8	; 0x2cf8 <SEGMENT_vSetLedPinVal>
		SEGMENT_vSetLedPinVal(Copy_Uchar8_tSegmentNumber,LEDB,ON);
    2f58:	89 81       	ldd	r24, Y+1	; 0x01
    2f5a:	61 e0       	ldi	r22, 0x01	; 1
    2f5c:	41 e0       	ldi	r20, 0x01	; 1
    2f5e:	0e 94 7c 16 	call	0x2cf8	; 0x2cf8 <SEGMENT_vSetLedPinVal>
		SEGMENT_vSetLedPinVal(Copy_Uchar8_tSegmentNumber,LEDC,ON);
    2f62:	89 81       	ldd	r24, Y+1	; 0x01
    2f64:	62 e0       	ldi	r22, 0x02	; 2
    2f66:	41 e0       	ldi	r20, 0x01	; 1
    2f68:	0e 94 7c 16 	call	0x2cf8	; 0x2cf8 <SEGMENT_vSetLedPinVal>
		SEGMENT_vSetLedPinVal(Copy_Uchar8_tSegmentNumber,LEDD,OFF);
    2f6c:	89 81       	ldd	r24, Y+1	; 0x01
    2f6e:	63 e0       	ldi	r22, 0x03	; 3
    2f70:	40 e0       	ldi	r20, 0x00	; 0
    2f72:	0e 94 7c 16 	call	0x2cf8	; 0x2cf8 <SEGMENT_vSetLedPinVal>
		SEGMENT_vSetLedPinVal(Copy_Uchar8_tSegmentNumber,LEDE,OFF);
    2f76:	89 81       	ldd	r24, Y+1	; 0x01
    2f78:	64 e0       	ldi	r22, 0x04	; 4
    2f7a:	40 e0       	ldi	r20, 0x00	; 0
    2f7c:	0e 94 7c 16 	call	0x2cf8	; 0x2cf8 <SEGMENT_vSetLedPinVal>
		SEGMENT_vSetLedPinVal(Copy_Uchar8_tSegmentNumber,LEDF,ON);
    2f80:	89 81       	ldd	r24, Y+1	; 0x01
    2f82:	65 e0       	ldi	r22, 0x05	; 5
    2f84:	41 e0       	ldi	r20, 0x01	; 1
    2f86:	0e 94 7c 16 	call	0x2cf8	; 0x2cf8 <SEGMENT_vSetLedPinVal>
		SEGMENT_vSetLedPinVal(Copy_Uchar8_tSegmentNumber,LEDG,ON);
    2f8a:	89 81       	ldd	r24, Y+1	; 0x01
    2f8c:	66 e0       	ldi	r22, 0x06	; 6
    2f8e:	41 e0       	ldi	r20, 0x01	; 1
    2f90:	0e 94 7c 16 	call	0x2cf8	; 0x2cf8 <SEGMENT_vSetLedPinVal>
		SEGMENT_vSetLedPinVal(Copy_Uchar8_tSegmentNumber,LEDDOT,OFF);
    2f94:	89 81       	ldd	r24, Y+1	; 0x01
    2f96:	67 e0       	ldi	r22, 0x07	; 7
    2f98:	40 e0       	ldi	r20, 0x00	; 0
    2f9a:	0e 94 7c 16 	call	0x2cf8	; 0x2cf8 <SEGMENT_vSetLedPinVal>
    2f9e:	cc c0       	rjmp	.+408    	; 0x3138 <SEGMENT_vDisplayNumber+0x3e6>
		break;
	}
	case 5:
	{
		SEGMENT_vSetLedPinVal(Copy_Uchar8_tSegmentNumber,LEDA,ON);
    2fa0:	89 81       	ldd	r24, Y+1	; 0x01
    2fa2:	60 e0       	ldi	r22, 0x00	; 0
    2fa4:	41 e0       	ldi	r20, 0x01	; 1
    2fa6:	0e 94 7c 16 	call	0x2cf8	; 0x2cf8 <SEGMENT_vSetLedPinVal>
		SEGMENT_vSetLedPinVal(Copy_Uchar8_tSegmentNumber,LEDB,OFF);
    2faa:	89 81       	ldd	r24, Y+1	; 0x01
    2fac:	61 e0       	ldi	r22, 0x01	; 1
    2fae:	40 e0       	ldi	r20, 0x00	; 0
    2fb0:	0e 94 7c 16 	call	0x2cf8	; 0x2cf8 <SEGMENT_vSetLedPinVal>
		SEGMENT_vSetLedPinVal(Copy_Uchar8_tSegmentNumber,LEDC,ON);
    2fb4:	89 81       	ldd	r24, Y+1	; 0x01
    2fb6:	62 e0       	ldi	r22, 0x02	; 2
    2fb8:	41 e0       	ldi	r20, 0x01	; 1
    2fba:	0e 94 7c 16 	call	0x2cf8	; 0x2cf8 <SEGMENT_vSetLedPinVal>
		SEGMENT_vSetLedPinVal(Copy_Uchar8_tSegmentNumber,LEDD,ON);
    2fbe:	89 81       	ldd	r24, Y+1	; 0x01
    2fc0:	63 e0       	ldi	r22, 0x03	; 3
    2fc2:	41 e0       	ldi	r20, 0x01	; 1
    2fc4:	0e 94 7c 16 	call	0x2cf8	; 0x2cf8 <SEGMENT_vSetLedPinVal>
		SEGMENT_vSetLedPinVal(Copy_Uchar8_tSegmentNumber,LEDE,OFF);
    2fc8:	89 81       	ldd	r24, Y+1	; 0x01
    2fca:	64 e0       	ldi	r22, 0x04	; 4
    2fcc:	40 e0       	ldi	r20, 0x00	; 0
    2fce:	0e 94 7c 16 	call	0x2cf8	; 0x2cf8 <SEGMENT_vSetLedPinVal>
		SEGMENT_vSetLedPinVal(Copy_Uchar8_tSegmentNumber,LEDF,ON);
    2fd2:	89 81       	ldd	r24, Y+1	; 0x01
    2fd4:	65 e0       	ldi	r22, 0x05	; 5
    2fd6:	41 e0       	ldi	r20, 0x01	; 1
    2fd8:	0e 94 7c 16 	call	0x2cf8	; 0x2cf8 <SEGMENT_vSetLedPinVal>
		SEGMENT_vSetLedPinVal(Copy_Uchar8_tSegmentNumber,LEDG,ON);
    2fdc:	89 81       	ldd	r24, Y+1	; 0x01
    2fde:	66 e0       	ldi	r22, 0x06	; 6
    2fe0:	41 e0       	ldi	r20, 0x01	; 1
    2fe2:	0e 94 7c 16 	call	0x2cf8	; 0x2cf8 <SEGMENT_vSetLedPinVal>
		SEGMENT_vSetLedPinVal(Copy_Uchar8_tSegmentNumber,LEDDOT,OFF);
    2fe6:	89 81       	ldd	r24, Y+1	; 0x01
    2fe8:	67 e0       	ldi	r22, 0x07	; 7
    2fea:	40 e0       	ldi	r20, 0x00	; 0
    2fec:	0e 94 7c 16 	call	0x2cf8	; 0x2cf8 <SEGMENT_vSetLedPinVal>
    2ff0:	a3 c0       	rjmp	.+326    	; 0x3138 <SEGMENT_vDisplayNumber+0x3e6>
		break;
	}
	case 6:
	{
		SEGMENT_vSetLedPinVal(Copy_Uchar8_tSegmentNumber,LEDA,ON);
    2ff2:	89 81       	ldd	r24, Y+1	; 0x01
    2ff4:	60 e0       	ldi	r22, 0x00	; 0
    2ff6:	41 e0       	ldi	r20, 0x01	; 1
    2ff8:	0e 94 7c 16 	call	0x2cf8	; 0x2cf8 <SEGMENT_vSetLedPinVal>
		SEGMENT_vSetLedPinVal(Copy_Uchar8_tSegmentNumber,LEDB,OFF);
    2ffc:	89 81       	ldd	r24, Y+1	; 0x01
    2ffe:	61 e0       	ldi	r22, 0x01	; 1
    3000:	40 e0       	ldi	r20, 0x00	; 0
    3002:	0e 94 7c 16 	call	0x2cf8	; 0x2cf8 <SEGMENT_vSetLedPinVal>
		SEGMENT_vSetLedPinVal(Copy_Uchar8_tSegmentNumber,LEDC,ON);
    3006:	89 81       	ldd	r24, Y+1	; 0x01
    3008:	62 e0       	ldi	r22, 0x02	; 2
    300a:	41 e0       	ldi	r20, 0x01	; 1
    300c:	0e 94 7c 16 	call	0x2cf8	; 0x2cf8 <SEGMENT_vSetLedPinVal>
		SEGMENT_vSetLedPinVal(Copy_Uchar8_tSegmentNumber,LEDD,ON);
    3010:	89 81       	ldd	r24, Y+1	; 0x01
    3012:	63 e0       	ldi	r22, 0x03	; 3
    3014:	41 e0       	ldi	r20, 0x01	; 1
    3016:	0e 94 7c 16 	call	0x2cf8	; 0x2cf8 <SEGMENT_vSetLedPinVal>
		SEGMENT_vSetLedPinVal(Copy_Uchar8_tSegmentNumber,LEDE,ON);
    301a:	89 81       	ldd	r24, Y+1	; 0x01
    301c:	64 e0       	ldi	r22, 0x04	; 4
    301e:	41 e0       	ldi	r20, 0x01	; 1
    3020:	0e 94 7c 16 	call	0x2cf8	; 0x2cf8 <SEGMENT_vSetLedPinVal>
		SEGMENT_vSetLedPinVal(Copy_Uchar8_tSegmentNumber,LEDF,ON);
    3024:	89 81       	ldd	r24, Y+1	; 0x01
    3026:	65 e0       	ldi	r22, 0x05	; 5
    3028:	41 e0       	ldi	r20, 0x01	; 1
    302a:	0e 94 7c 16 	call	0x2cf8	; 0x2cf8 <SEGMENT_vSetLedPinVal>
		SEGMENT_vSetLedPinVal(Copy_Uchar8_tSegmentNumber,LEDG,ON);
    302e:	89 81       	ldd	r24, Y+1	; 0x01
    3030:	66 e0       	ldi	r22, 0x06	; 6
    3032:	41 e0       	ldi	r20, 0x01	; 1
    3034:	0e 94 7c 16 	call	0x2cf8	; 0x2cf8 <SEGMENT_vSetLedPinVal>
		SEGMENT_vSetLedPinVal(Copy_Uchar8_tSegmentNumber,LEDDOT,OFF);
    3038:	89 81       	ldd	r24, Y+1	; 0x01
    303a:	67 e0       	ldi	r22, 0x07	; 7
    303c:	40 e0       	ldi	r20, 0x00	; 0
    303e:	0e 94 7c 16 	call	0x2cf8	; 0x2cf8 <SEGMENT_vSetLedPinVal>
    3042:	7a c0       	rjmp	.+244    	; 0x3138 <SEGMENT_vDisplayNumber+0x3e6>
		break;
	}
	case 7:
	{
		SEGMENT_vSetLedPinVal(Copy_Uchar8_tSegmentNumber,LEDA,ON);
    3044:	89 81       	ldd	r24, Y+1	; 0x01
    3046:	60 e0       	ldi	r22, 0x00	; 0
    3048:	41 e0       	ldi	r20, 0x01	; 1
    304a:	0e 94 7c 16 	call	0x2cf8	; 0x2cf8 <SEGMENT_vSetLedPinVal>
		SEGMENT_vSetLedPinVal(Copy_Uchar8_tSegmentNumber,LEDB,ON);
    304e:	89 81       	ldd	r24, Y+1	; 0x01
    3050:	61 e0       	ldi	r22, 0x01	; 1
    3052:	41 e0       	ldi	r20, 0x01	; 1
    3054:	0e 94 7c 16 	call	0x2cf8	; 0x2cf8 <SEGMENT_vSetLedPinVal>
		SEGMENT_vSetLedPinVal(Copy_Uchar8_tSegmentNumber,LEDC,ON);
    3058:	89 81       	ldd	r24, Y+1	; 0x01
    305a:	62 e0       	ldi	r22, 0x02	; 2
    305c:	41 e0       	ldi	r20, 0x01	; 1
    305e:	0e 94 7c 16 	call	0x2cf8	; 0x2cf8 <SEGMENT_vSetLedPinVal>
		SEGMENT_vSetLedPinVal(Copy_Uchar8_tSegmentNumber,LEDD,OFF);
    3062:	89 81       	ldd	r24, Y+1	; 0x01
    3064:	63 e0       	ldi	r22, 0x03	; 3
    3066:	40 e0       	ldi	r20, 0x00	; 0
    3068:	0e 94 7c 16 	call	0x2cf8	; 0x2cf8 <SEGMENT_vSetLedPinVal>
		SEGMENT_vSetLedPinVal(Copy_Uchar8_tSegmentNumber,LEDE,OFF);
    306c:	89 81       	ldd	r24, Y+1	; 0x01
    306e:	64 e0       	ldi	r22, 0x04	; 4
    3070:	40 e0       	ldi	r20, 0x00	; 0
    3072:	0e 94 7c 16 	call	0x2cf8	; 0x2cf8 <SEGMENT_vSetLedPinVal>
		SEGMENT_vSetLedPinVal(Copy_Uchar8_tSegmentNumber,LEDF,OFF);
    3076:	89 81       	ldd	r24, Y+1	; 0x01
    3078:	65 e0       	ldi	r22, 0x05	; 5
    307a:	40 e0       	ldi	r20, 0x00	; 0
    307c:	0e 94 7c 16 	call	0x2cf8	; 0x2cf8 <SEGMENT_vSetLedPinVal>
		SEGMENT_vSetLedPinVal(Copy_Uchar8_tSegmentNumber,LEDG,OFF);
    3080:	89 81       	ldd	r24, Y+1	; 0x01
    3082:	66 e0       	ldi	r22, 0x06	; 6
    3084:	40 e0       	ldi	r20, 0x00	; 0
    3086:	0e 94 7c 16 	call	0x2cf8	; 0x2cf8 <SEGMENT_vSetLedPinVal>
		SEGMENT_vSetLedPinVal(Copy_Uchar8_tSegmentNumber,LEDDOT,OFF);
    308a:	89 81       	ldd	r24, Y+1	; 0x01
    308c:	67 e0       	ldi	r22, 0x07	; 7
    308e:	40 e0       	ldi	r20, 0x00	; 0
    3090:	0e 94 7c 16 	call	0x2cf8	; 0x2cf8 <SEGMENT_vSetLedPinVal>
    3094:	51 c0       	rjmp	.+162    	; 0x3138 <SEGMENT_vDisplayNumber+0x3e6>
		break;
	}
	case 8:
	{
		SEGMENT_vSetLedPinVal(Copy_Uchar8_tSegmentNumber,LEDA,ON);
    3096:	89 81       	ldd	r24, Y+1	; 0x01
    3098:	60 e0       	ldi	r22, 0x00	; 0
    309a:	41 e0       	ldi	r20, 0x01	; 1
    309c:	0e 94 7c 16 	call	0x2cf8	; 0x2cf8 <SEGMENT_vSetLedPinVal>
		SEGMENT_vSetLedPinVal(Copy_Uchar8_tSegmentNumber,LEDB,ON);
    30a0:	89 81       	ldd	r24, Y+1	; 0x01
    30a2:	61 e0       	ldi	r22, 0x01	; 1
    30a4:	41 e0       	ldi	r20, 0x01	; 1
    30a6:	0e 94 7c 16 	call	0x2cf8	; 0x2cf8 <SEGMENT_vSetLedPinVal>
		SEGMENT_vSetLedPinVal(Copy_Uchar8_tSegmentNumber,LEDC,ON);
    30aa:	89 81       	ldd	r24, Y+1	; 0x01
    30ac:	62 e0       	ldi	r22, 0x02	; 2
    30ae:	41 e0       	ldi	r20, 0x01	; 1
    30b0:	0e 94 7c 16 	call	0x2cf8	; 0x2cf8 <SEGMENT_vSetLedPinVal>
		SEGMENT_vSetLedPinVal(Copy_Uchar8_tSegmentNumber,LEDD,ON);
    30b4:	89 81       	ldd	r24, Y+1	; 0x01
    30b6:	63 e0       	ldi	r22, 0x03	; 3
    30b8:	41 e0       	ldi	r20, 0x01	; 1
    30ba:	0e 94 7c 16 	call	0x2cf8	; 0x2cf8 <SEGMENT_vSetLedPinVal>
		SEGMENT_vSetLedPinVal(Copy_Uchar8_tSegmentNumber,LEDE,ON);
    30be:	89 81       	ldd	r24, Y+1	; 0x01
    30c0:	64 e0       	ldi	r22, 0x04	; 4
    30c2:	41 e0       	ldi	r20, 0x01	; 1
    30c4:	0e 94 7c 16 	call	0x2cf8	; 0x2cf8 <SEGMENT_vSetLedPinVal>
		SEGMENT_vSetLedPinVal(Copy_Uchar8_tSegmentNumber,LEDF,ON);
    30c8:	89 81       	ldd	r24, Y+1	; 0x01
    30ca:	65 e0       	ldi	r22, 0x05	; 5
    30cc:	41 e0       	ldi	r20, 0x01	; 1
    30ce:	0e 94 7c 16 	call	0x2cf8	; 0x2cf8 <SEGMENT_vSetLedPinVal>
		SEGMENT_vSetLedPinVal(Copy_Uchar8_tSegmentNumber,LEDG,ON);
    30d2:	89 81       	ldd	r24, Y+1	; 0x01
    30d4:	66 e0       	ldi	r22, 0x06	; 6
    30d6:	41 e0       	ldi	r20, 0x01	; 1
    30d8:	0e 94 7c 16 	call	0x2cf8	; 0x2cf8 <SEGMENT_vSetLedPinVal>
		SEGMENT_vSetLedPinVal(Copy_Uchar8_tSegmentNumber,LEDDOT,OFF);
    30dc:	89 81       	ldd	r24, Y+1	; 0x01
    30de:	67 e0       	ldi	r22, 0x07	; 7
    30e0:	40 e0       	ldi	r20, 0x00	; 0
    30e2:	0e 94 7c 16 	call	0x2cf8	; 0x2cf8 <SEGMENT_vSetLedPinVal>
    30e6:	28 c0       	rjmp	.+80     	; 0x3138 <SEGMENT_vDisplayNumber+0x3e6>
		break;
	}
	case 9:
	{
		SEGMENT_vSetLedPinVal(Copy_Uchar8_tSegmentNumber,LEDA,ON);
    30e8:	89 81       	ldd	r24, Y+1	; 0x01
    30ea:	60 e0       	ldi	r22, 0x00	; 0
    30ec:	41 e0       	ldi	r20, 0x01	; 1
    30ee:	0e 94 7c 16 	call	0x2cf8	; 0x2cf8 <SEGMENT_vSetLedPinVal>
		SEGMENT_vSetLedPinVal(Copy_Uchar8_tSegmentNumber,LEDB,ON);
    30f2:	89 81       	ldd	r24, Y+1	; 0x01
    30f4:	61 e0       	ldi	r22, 0x01	; 1
    30f6:	41 e0       	ldi	r20, 0x01	; 1
    30f8:	0e 94 7c 16 	call	0x2cf8	; 0x2cf8 <SEGMENT_vSetLedPinVal>
		SEGMENT_vSetLedPinVal(Copy_Uchar8_tSegmentNumber,LEDC,ON);
    30fc:	89 81       	ldd	r24, Y+1	; 0x01
    30fe:	62 e0       	ldi	r22, 0x02	; 2
    3100:	41 e0       	ldi	r20, 0x01	; 1
    3102:	0e 94 7c 16 	call	0x2cf8	; 0x2cf8 <SEGMENT_vSetLedPinVal>
		SEGMENT_vSetLedPinVal(Copy_Uchar8_tSegmentNumber,LEDD,ON);
    3106:	89 81       	ldd	r24, Y+1	; 0x01
    3108:	63 e0       	ldi	r22, 0x03	; 3
    310a:	41 e0       	ldi	r20, 0x01	; 1
    310c:	0e 94 7c 16 	call	0x2cf8	; 0x2cf8 <SEGMENT_vSetLedPinVal>
		SEGMENT_vSetLedPinVal(Copy_Uchar8_tSegmentNumber,LEDE,OFF);
    3110:	89 81       	ldd	r24, Y+1	; 0x01
    3112:	64 e0       	ldi	r22, 0x04	; 4
    3114:	40 e0       	ldi	r20, 0x00	; 0
    3116:	0e 94 7c 16 	call	0x2cf8	; 0x2cf8 <SEGMENT_vSetLedPinVal>
		SEGMENT_vSetLedPinVal(Copy_Uchar8_tSegmentNumber,LEDF,ON);
    311a:	89 81       	ldd	r24, Y+1	; 0x01
    311c:	65 e0       	ldi	r22, 0x05	; 5
    311e:	41 e0       	ldi	r20, 0x01	; 1
    3120:	0e 94 7c 16 	call	0x2cf8	; 0x2cf8 <SEGMENT_vSetLedPinVal>
		SEGMENT_vSetLedPinVal(Copy_Uchar8_tSegmentNumber,LEDG,ON);
    3124:	89 81       	ldd	r24, Y+1	; 0x01
    3126:	66 e0       	ldi	r22, 0x06	; 6
    3128:	41 e0       	ldi	r20, 0x01	; 1
    312a:	0e 94 7c 16 	call	0x2cf8	; 0x2cf8 <SEGMENT_vSetLedPinVal>
		SEGMENT_vSetLedPinVal(Copy_Uchar8_tSegmentNumber,LEDDOT,OFF);
    312e:	89 81       	ldd	r24, Y+1	; 0x01
    3130:	67 e0       	ldi	r22, 0x07	; 7
    3132:	40 e0       	ldi	r20, 0x00	; 0
    3134:	0e 94 7c 16 	call	0x2cf8	; 0x2cf8 <SEGMENT_vSetLedPinVal>
		break;
	}
	}
}
    3138:	0f 90       	pop	r0
    313a:	0f 90       	pop	r0
    313c:	0f 90       	pop	r0
    313e:	0f 90       	pop	r0
    3140:	cf 91       	pop	r28
    3142:	df 91       	pop	r29
    3144:	08 95       	ret

00003146 <main>:
#include "EHAL/KEYPAD/KP_Interface.h"
#include "EHAL/7SEGMENT/7SEGMENT_Interface.h"


void main(void)
{
    3146:	df 93       	push	r29
    3148:	cf 93       	push	r28
    314a:	0f 92       	push	r0
    314c:	cd b7       	in	r28, 0x3d	; 61
    314e:	de b7       	in	r29, 0x3e	; 62
	KP_vInitKeyPad();
    3150:	0e 94 67 15 	call	0x2ace	; 0x2ace <KP_vInitKeyPad>
	SEGMENT_vInit(SEGMENT_TWO);
    3154:	82 e0       	ldi	r24, 0x02	; 2
    3156:	0e 94 56 16 	call	0x2cac	; 0x2cac <SEGMENT_vInit>
	SEGMENT_vDisplayNumber(SEGMENT_TWO,5);
    315a:	82 e0       	ldi	r24, 0x02	; 2
    315c:	65 e0       	ldi	r22, 0x05	; 5
    315e:	0e 94 a9 16 	call	0x2d52	; 0x2d52 <SEGMENT_vDisplayNumber>
	char key = 's';
    3162:	83 e7       	ldi	r24, 0x73	; 115
    3164:	89 83       	std	Y+1, r24	; 0x01
	while(1)
	{
		KPD_vGetPressedKey(&key);
    3166:	ce 01       	movw	r24, r28
    3168:	01 96       	adiw	r24, 0x01	; 1
    316a:	0e 94 7a 15 	call	0x2af4	; 0x2af4 <KPD_vGetPressedKey>

		if(key != 's')
    316e:	89 81       	ldd	r24, Y+1	; 0x01
    3170:	83 37       	cpi	r24, 0x73	; 115
    3172:	c9 f3       	breq	.-14     	; 0x3166 <main+0x20>
		{
			key -='0';
    3174:	89 81       	ldd	r24, Y+1	; 0x01
    3176:	80 53       	subi	r24, 0x30	; 48
    3178:	89 83       	std	Y+1, r24	; 0x01
			SEGMENT_vDisplayNumber(SEGMENT_TWO,key);
    317a:	99 81       	ldd	r25, Y+1	; 0x01
    317c:	82 e0       	ldi	r24, 0x02	; 2
    317e:	69 2f       	mov	r22, r25
    3180:	0e 94 a9 16 	call	0x2d52	; 0x2d52 <SEGMENT_vDisplayNumber>
			key = 's';
    3184:	83 e7       	ldi	r24, 0x73	; 115
    3186:	89 83       	std	Y+1, r24	; 0x01
    3188:	ee cf       	rjmp	.-36     	; 0x3166 <main+0x20>

0000318a <__udivmodhi4>:
    318a:	aa 1b       	sub	r26, r26
    318c:	bb 1b       	sub	r27, r27
    318e:	51 e1       	ldi	r21, 0x11	; 17
    3190:	07 c0       	rjmp	.+14     	; 0x31a0 <__udivmodhi4_ep>

00003192 <__udivmodhi4_loop>:
    3192:	aa 1f       	adc	r26, r26
    3194:	bb 1f       	adc	r27, r27
    3196:	a6 17       	cp	r26, r22
    3198:	b7 07       	cpc	r27, r23
    319a:	10 f0       	brcs	.+4      	; 0x31a0 <__udivmodhi4_ep>
    319c:	a6 1b       	sub	r26, r22
    319e:	b7 0b       	sbc	r27, r23

000031a0 <__udivmodhi4_ep>:
    31a0:	88 1f       	adc	r24, r24
    31a2:	99 1f       	adc	r25, r25
    31a4:	5a 95       	dec	r21
    31a6:	a9 f7       	brne	.-22     	; 0x3192 <__udivmodhi4_loop>
    31a8:	80 95       	com	r24
    31aa:	90 95       	com	r25
    31ac:	bc 01       	movw	r22, r24
    31ae:	cd 01       	movw	r24, r26
    31b0:	08 95       	ret

000031b2 <__prologue_saves__>:
    31b2:	2f 92       	push	r2
    31b4:	3f 92       	push	r3
    31b6:	4f 92       	push	r4
    31b8:	5f 92       	push	r5
    31ba:	6f 92       	push	r6
    31bc:	7f 92       	push	r7
    31be:	8f 92       	push	r8
    31c0:	9f 92       	push	r9
    31c2:	af 92       	push	r10
    31c4:	bf 92       	push	r11
    31c6:	cf 92       	push	r12
    31c8:	df 92       	push	r13
    31ca:	ef 92       	push	r14
    31cc:	ff 92       	push	r15
    31ce:	0f 93       	push	r16
    31d0:	1f 93       	push	r17
    31d2:	cf 93       	push	r28
    31d4:	df 93       	push	r29
    31d6:	cd b7       	in	r28, 0x3d	; 61
    31d8:	de b7       	in	r29, 0x3e	; 62
    31da:	ca 1b       	sub	r28, r26
    31dc:	db 0b       	sbc	r29, r27
    31de:	0f b6       	in	r0, 0x3f	; 63
    31e0:	f8 94       	cli
    31e2:	de bf       	out	0x3e, r29	; 62
    31e4:	0f be       	out	0x3f, r0	; 63
    31e6:	cd bf       	out	0x3d, r28	; 61
    31e8:	09 94       	ijmp

000031ea <__epilogue_restores__>:
    31ea:	2a 88       	ldd	r2, Y+18	; 0x12
    31ec:	39 88       	ldd	r3, Y+17	; 0x11
    31ee:	48 88       	ldd	r4, Y+16	; 0x10
    31f0:	5f 84       	ldd	r5, Y+15	; 0x0f
    31f2:	6e 84       	ldd	r6, Y+14	; 0x0e
    31f4:	7d 84       	ldd	r7, Y+13	; 0x0d
    31f6:	8c 84       	ldd	r8, Y+12	; 0x0c
    31f8:	9b 84       	ldd	r9, Y+11	; 0x0b
    31fa:	aa 84       	ldd	r10, Y+10	; 0x0a
    31fc:	b9 84       	ldd	r11, Y+9	; 0x09
    31fe:	c8 84       	ldd	r12, Y+8	; 0x08
    3200:	df 80       	ldd	r13, Y+7	; 0x07
    3202:	ee 80       	ldd	r14, Y+6	; 0x06
    3204:	fd 80       	ldd	r15, Y+5	; 0x05
    3206:	0c 81       	ldd	r16, Y+4	; 0x04
    3208:	1b 81       	ldd	r17, Y+3	; 0x03
    320a:	aa 81       	ldd	r26, Y+2	; 0x02
    320c:	b9 81       	ldd	r27, Y+1	; 0x01
    320e:	ce 0f       	add	r28, r30
    3210:	d1 1d       	adc	r29, r1
    3212:	0f b6       	in	r0, 0x3f	; 63
    3214:	f8 94       	cli
    3216:	de bf       	out	0x3e, r29	; 62
    3218:	0f be       	out	0x3f, r0	; 63
    321a:	cd bf       	out	0x3d, r28	; 61
    321c:	ed 01       	movw	r28, r26
    321e:	08 95       	ret

00003220 <_exit>:
    3220:	f8 94       	cli

00003222 <__stop_program>:
    3222:	ff cf       	rjmp	.-2      	; 0x3222 <__stop_program>
